ARM GAS  C:\Users\triet\AppData\Local\Temp\ccoOOlUu.s 			page 1


   1              		.cpu cortex-m4
   2              		.arch armv7e-m
   3              		.fpu fpv4-sp-d16
   4              		.eabi_attribute 27, 1
   5              		.eabi_attribute 28, 1
   6              		.eabi_attribute 20, 1
   7              		.eabi_attribute 21, 1
   8              		.eabi_attribute 23, 3
   9              		.eabi_attribute 24, 1
  10              		.eabi_attribute 25, 1
  11              		.eabi_attribute 26, 1
  12              		.eabi_attribute 30, 1
  13              		.eabi_attribute 34, 1
  14              		.eabi_attribute 18, 4
  15              		.file	"main.c"
  16              		.text
  17              	.Ltext0:
  18              		.cfi_sections	.debug_frame
  19              		.section	.text.MX_GPIO_Init,"ax",%progbits
  20              		.align	1
  21              		.syntax unified
  22              		.thumb
  23              		.thumb_func
  25              	MX_GPIO_Init:
  26              	.LFB137:
  27              		.file 1 "Core/Src/main.c"
   1:Core/Src/main.c **** /* USER CODE BEGIN Header */
   2:Core/Src/main.c **** /**
   3:Core/Src/main.c ****   ******************************************************************************
   4:Core/Src/main.c ****   * @file           : main.c
   5:Core/Src/main.c ****   * @brief          : Main program body
   6:Core/Src/main.c ****   ******************************************************************************
   7:Core/Src/main.c ****   * @attention
   8:Core/Src/main.c ****   *
   9:Core/Src/main.c ****   * Copyright (c) 2023 STMicroelectronics.
  10:Core/Src/main.c ****   * All rights reserved.
  11:Core/Src/main.c ****   *
  12:Core/Src/main.c ****   * This software is licensed under terms that can be found in the LICENSE file
  13:Core/Src/main.c ****   * in the root directory of this software component.
  14:Core/Src/main.c ****   * If no LICENSE file comes with this software, it is provided AS-IS.
  15:Core/Src/main.c ****   *
  16:Core/Src/main.c ****   ******************************************************************************
  17:Core/Src/main.c ****   */
  18:Core/Src/main.c **** /* USER CODE END Header */
  19:Core/Src/main.c **** /* Includes ------------------------------------------------------------------*/
  20:Core/Src/main.c **** #include "main.h"
  21:Core/Src/main.c **** 
  22:Core/Src/main.c **** /* Private includes ----------------------------------------------------------*/
  23:Core/Src/main.c **** /* USER CODE BEGIN Includes */
  24:Core/Src/main.c **** #include <mpu6050.h>
  25:Core/Src/main.c **** #include <stdio.h>
  26:Core/Src/main.c **** /* USER CODE END Includes */
  27:Core/Src/main.c **** 
  28:Core/Src/main.c **** /* Private typedef -----------------------------------------------------------*/
  29:Core/Src/main.c **** /* USER CODE BEGIN PTD */
  30:Core/Src/main.c **** 
  31:Core/Src/main.c **** /* USER CODE END PTD */
ARM GAS  C:\Users\triet\AppData\Local\Temp\ccoOOlUu.s 			page 2


  32:Core/Src/main.c **** 
  33:Core/Src/main.c **** /* Private define ------------------------------------------------------------*/
  34:Core/Src/main.c **** /* USER CODE BEGIN PD */
  35:Core/Src/main.c **** 
  36:Core/Src/main.c **** /* USER CODE END PD */
  37:Core/Src/main.c **** 
  38:Core/Src/main.c **** /* Private macro -------------------------------------------------------------*/
  39:Core/Src/main.c **** /* USER CODE BEGIN PM */
  40:Core/Src/main.c **** 
  41:Core/Src/main.c **** /* USER CODE END PM */
  42:Core/Src/main.c **** 
  43:Core/Src/main.c **** /* Private variables ---------------------------------------------------------*/
  44:Core/Src/main.c **** I2C_HandleTypeDef hi2c1;
  45:Core/Src/main.c **** 
  46:Core/Src/main.c **** UART_HandleTypeDef huart2;
  47:Core/Src/main.c **** 
  48:Core/Src/main.c **** /* USER CODE BEGIN PV */
  49:Core/Src/main.c **** mpu6050_t MPU6050;
  50:Core/Src/main.c **** char Roll_Data[30];
  51:Core/Src/main.c **** char Pitch_Data[30];
  52:Core/Src/main.c **** char Yaw_Data[30];
  53:Core/Src/main.c **** int set_gyro_angles;
  54:Core/Src/main.c **** /* USER CODE END PV */
  55:Core/Src/main.c **** 
  56:Core/Src/main.c **** /* Private function prototypes -----------------------------------------------*/
  57:Core/Src/main.c **** void SystemClock_Config(void);
  58:Core/Src/main.c **** static void MX_GPIO_Init(void);
  59:Core/Src/main.c **** static void MX_I2C1_Init(void);
  60:Core/Src/main.c **** static void MX_USART2_UART_Init(void);
  61:Core/Src/main.c **** /* USER CODE BEGIN PFP */
  62:Core/Src/main.c **** 
  63:Core/Src/main.c **** /* USER CODE END PFP */
  64:Core/Src/main.c **** 
  65:Core/Src/main.c **** /* Private user code ---------------------------------------------------------*/
  66:Core/Src/main.c **** /* USER CODE BEGIN 0 */
  67:Core/Src/main.c **** 
  68:Core/Src/main.c **** /* USER CODE END 0 */
  69:Core/Src/main.c **** 
  70:Core/Src/main.c **** /**
  71:Core/Src/main.c ****   * @brief  The application entry point.
  72:Core/Src/main.c ****   * @retval int
  73:Core/Src/main.c ****   */
  74:Core/Src/main.c **** int main(void)
  75:Core/Src/main.c **** {
  76:Core/Src/main.c ****   /* USER CODE BEGIN 1 */
  77:Core/Src/main.c **** 
  78:Core/Src/main.c ****   /* USER CODE END 1 */
  79:Core/Src/main.c **** 
  80:Core/Src/main.c ****   /* MCU Configuration--------------------------------------------------------*/
  81:Core/Src/main.c **** 
  82:Core/Src/main.c ****   /* Reset of all peripherals, Initializes the Flash interface and the Systick. */
  83:Core/Src/main.c ****   HAL_Init();
  84:Core/Src/main.c **** 
  85:Core/Src/main.c ****   /* USER CODE BEGIN Init */
  86:Core/Src/main.c **** 
  87:Core/Src/main.c ****   /* USER CODE END Init */
  88:Core/Src/main.c **** 
ARM GAS  C:\Users\triet\AppData\Local\Temp\ccoOOlUu.s 			page 3


  89:Core/Src/main.c ****   /* Configure the system clock */
  90:Core/Src/main.c ****   SystemClock_Config();
  91:Core/Src/main.c **** 
  92:Core/Src/main.c ****   /* USER CODE BEGIN SysInit */
  93:Core/Src/main.c **** 
  94:Core/Src/main.c ****   /* USER CODE END SysInit */
  95:Core/Src/main.c **** 
  96:Core/Src/main.c ****   /* Initialize all configured peripherals */
  97:Core/Src/main.c ****   MX_GPIO_Init();
  98:Core/Src/main.c ****   MX_I2C1_Init();
  99:Core/Src/main.c ****   MX_USART2_UART_Init();
 100:Core/Src/main.c ****   /* USER CODE BEGIN 2 */
 101:Core/Src/main.c ****   MPU6050_Init();
 102:Core/Src/main.c **** 
 103:Core/Src/main.c ****   for(int calibrate = 0; calibrate < 2000; calibrate++)
 104:Core/Src/main.c ****   {
 105:Core/Src/main.c ****     MPU6050_Read(&MPU6050);
 106:Core/Src/main.c ****     MPU6050.Cali_Gx += MPU6050.Gx;
 107:Core/Src/main.c ****     MPU6050.Cali_Gy += MPU6050.Gy;
 108:Core/Src/main.c ****     MPU6050.Cali_Gz += MPU6050.Gz;
 109:Core/Src/main.c ****     HAL_Delay(3);
 110:Core/Src/main.c ****   }
 111:Core/Src/main.c ****   MPU6050.Cali_Gx/=2000;
 112:Core/Src/main.c ****   MPU6050.Cali_Gy/=2000;
 113:Core/Src/main.c ****   MPU6050.Cali_Gz/=2000;
 114:Core/Src/main.c ****   /* USER CODE END 2 */
 115:Core/Src/main.c **** 
 116:Core/Src/main.c ****   /* Infinite loop */
 117:Core/Src/main.c ****   /* USER CODE BEGIN WHILE */
 118:Core/Src/main.c ****   while (1)
 119:Core/Src/main.c ****   {
 120:Core/Src/main.c ****     /* USER CODE END WHILE */
 121:Core/Src/main.c **** 
 122:Core/Src/main.c ****     /* USER CODE BEGIN 3 */
 123:Core/Src/main.c ****     MPU6050_Read(&MPU6050);
 124:Core/Src/main.c ****     MPU6050.Gx -= MPU6050.Cali_Gx;
 125:Core/Src/main.c ****     MPU6050.Gy -= MPU6050.Cali_Gy;
 126:Core/Src/main.c ****     MPU6050.Gz -= MPU6050.Cali_Gz;
 127:Core/Src/main.c **** 
 128:Core/Src/main.c ****     MPU6050.Pitch_Angle += MPU6050.Gx * 0.0000611; 
 129:Core/Src/main.c ****     MPU6050.Roll_Angle += MPU6050.Gy * 0.0000611; 
 130:Core/Src/main.c **** 
 131:Core/Src/main.c ****     MPU6050.Pitch_Angle+= MPU6050.Roll_Angle*sin(MPU6050.Gz*0.000001066);
 132:Core/Src/main.c ****     MPU6050.Roll_Angle-= MPU6050.Pitch_Angle*sin(MPU6050.Gz*0.000001066);
 133:Core/Src/main.c **** 
 134:Core/Src/main.c ****     MPU6050.Total_Acc_Vector = sqrt(pow(MPU6050.Ax,2) + pow(MPU6050.Ay,2) + pow(MPU6050.Az,2));
 135:Core/Src/main.c ****     MPU6050.Roll_Angle_Acc = asin((float)MPU6050.Ax/MPU6050.Total_Acc_Vector) * 57.296;
 136:Core/Src/main.c ****     MPU6050.Pitch_Angle_Acc = asin((float)MPU6050.Ay/MPU6050.Total_Acc_Vector) * -57.296;
 137:Core/Src/main.c **** 
 138:Core/Src/main.c ****     if(set_gyro_angles)
 139:Core/Src/main.c ****     {
 140:Core/Src/main.c ****       MPU6050.Roll_Angle = MPU6050.Roll_Angle *0.9996 - MPU6050.Roll_Angle_Acc*0.0004;
 141:Core/Src/main.c ****       MPU6050.Pitch_Angle = MPU6050.Pitch_Angle *0.9996 - MPU6050.Pitch_Angle_Acc*0.0004;
 142:Core/Src/main.c ****     }
 143:Core/Src/main.c ****     else 
 144:Core/Src/main.c ****     {
 145:Core/Src/main.c ****       MPU6050.Roll_Angle = MPU6050.Roll_Angle_Acc;
ARM GAS  C:\Users\triet\AppData\Local\Temp\ccoOOlUu.s 			page 4


 146:Core/Src/main.c ****       MPU6050.Pitch_Angle = MPU6050.Pitch_Angle_Acc;
 147:Core/Src/main.c ****       set_gyro_angles = 1;
 148:Core/Src/main.c ****     }
 149:Core/Src/main.c **** 
 150:Core/Src/main.c ****     MPU6050.Roll_Output =  MPU6050.Roll_Output* 0.9 + MPU6050.Roll_Angle*0.1 ;
 151:Core/Src/main.c ****     MPU6050.Pitch_Output = MPU6050.Pitch_Output* 0.9 + MPU6050.Pitch_Angle*0.1 ;
 152:Core/Src/main.c **** 
 153:Core/Src/main.c ****     sprintf(Roll_Data,"Roll: %.2f ",MPU6050.Roll_Output);
 154:Core/Src/main.c ****     sprintf(Pitch_Data,"Pitch: %.2f ",MPU6050.Pitch_Output);
 155:Core/Src/main.c **** 
 156:Core/Src/main.c ****     HAL_UART_Transmit(&huart2, Roll_Data, sizeof(Roll_Data), 100);
 157:Core/Src/main.c ****     HAL_UART_Transmit(&huart2, Pitch_Data, sizeof(Pitch_Data), 100);
 158:Core/Src/main.c ****   }
 159:Core/Src/main.c ****   /* USER CODE END 3 */
 160:Core/Src/main.c **** }
 161:Core/Src/main.c **** 
 162:Core/Src/main.c **** /**
 163:Core/Src/main.c ****   * @brief System Clock Configuration
 164:Core/Src/main.c ****   * @retval None
 165:Core/Src/main.c ****   */
 166:Core/Src/main.c **** void SystemClock_Config(void)
 167:Core/Src/main.c **** {
 168:Core/Src/main.c ****   RCC_OscInitTypeDef RCC_OscInitStruct = {0};
 169:Core/Src/main.c ****   RCC_ClkInitTypeDef RCC_ClkInitStruct = {0};
 170:Core/Src/main.c **** 
 171:Core/Src/main.c ****   /** Configure the main internal regulator output voltage
 172:Core/Src/main.c ****   */
 173:Core/Src/main.c ****   __HAL_RCC_PWR_CLK_ENABLE();
 174:Core/Src/main.c ****   __HAL_PWR_VOLTAGESCALING_CONFIG(PWR_REGULATOR_VOLTAGE_SCALE1);
 175:Core/Src/main.c **** 
 176:Core/Src/main.c ****   /** Initializes the RCC Oscillators according to the specified parameters
 177:Core/Src/main.c ****   * in the RCC_OscInitTypeDef structure.
 178:Core/Src/main.c ****   */
 179:Core/Src/main.c ****   RCC_OscInitStruct.OscillatorType = RCC_OSCILLATORTYPE_HSE;
 180:Core/Src/main.c ****   RCC_OscInitStruct.HSEState = RCC_HSE_ON;
 181:Core/Src/main.c ****   RCC_OscInitStruct.PLL.PLLState = RCC_PLL_ON;
 182:Core/Src/main.c ****   RCC_OscInitStruct.PLL.PLLSource = RCC_PLLSOURCE_HSE;
 183:Core/Src/main.c ****   RCC_OscInitStruct.PLL.PLLM = 4;
 184:Core/Src/main.c ****   RCC_OscInitStruct.PLL.PLLN = 180;
 185:Core/Src/main.c ****   RCC_OscInitStruct.PLL.PLLP = RCC_PLLP_DIV2;
 186:Core/Src/main.c ****   RCC_OscInitStruct.PLL.PLLQ = 2;
 187:Core/Src/main.c ****   RCC_OscInitStruct.PLL.PLLR = 2;
 188:Core/Src/main.c ****   if (HAL_RCC_OscConfig(&RCC_OscInitStruct) != HAL_OK)
 189:Core/Src/main.c ****   {
 190:Core/Src/main.c ****     Error_Handler();
 191:Core/Src/main.c ****   }
 192:Core/Src/main.c **** 
 193:Core/Src/main.c ****   /** Activate the Over-Drive mode
 194:Core/Src/main.c ****   */
 195:Core/Src/main.c ****   if (HAL_PWREx_EnableOverDrive() != HAL_OK)
 196:Core/Src/main.c ****   {
 197:Core/Src/main.c ****     Error_Handler();
 198:Core/Src/main.c ****   }
 199:Core/Src/main.c **** 
 200:Core/Src/main.c ****   /** Initializes the CPU, AHB and APB buses clocks
 201:Core/Src/main.c ****   */
 202:Core/Src/main.c ****   RCC_ClkInitStruct.ClockType = RCC_CLOCKTYPE_HCLK|RCC_CLOCKTYPE_SYSCLK
ARM GAS  C:\Users\triet\AppData\Local\Temp\ccoOOlUu.s 			page 5


 203:Core/Src/main.c ****                               |RCC_CLOCKTYPE_PCLK1|RCC_CLOCKTYPE_PCLK2;
 204:Core/Src/main.c ****   RCC_ClkInitStruct.SYSCLKSource = RCC_SYSCLKSOURCE_PLLCLK;
 205:Core/Src/main.c ****   RCC_ClkInitStruct.AHBCLKDivider = RCC_SYSCLK_DIV1;
 206:Core/Src/main.c ****   RCC_ClkInitStruct.APB1CLKDivider = RCC_HCLK_DIV4;
 207:Core/Src/main.c ****   RCC_ClkInitStruct.APB2CLKDivider = RCC_HCLK_DIV2;
 208:Core/Src/main.c **** 
 209:Core/Src/main.c ****   if (HAL_RCC_ClockConfig(&RCC_ClkInitStruct, FLASH_LATENCY_5) != HAL_OK)
 210:Core/Src/main.c ****   {
 211:Core/Src/main.c ****     Error_Handler();
 212:Core/Src/main.c ****   }
 213:Core/Src/main.c **** }
 214:Core/Src/main.c **** 
 215:Core/Src/main.c **** /**
 216:Core/Src/main.c ****   * @brief I2C1 Initialization Function
 217:Core/Src/main.c ****   * @param None
 218:Core/Src/main.c ****   * @retval None
 219:Core/Src/main.c ****   */
 220:Core/Src/main.c **** static void MX_I2C1_Init(void)
 221:Core/Src/main.c **** {
 222:Core/Src/main.c **** 
 223:Core/Src/main.c ****   /* USER CODE BEGIN I2C1_Init 0 */
 224:Core/Src/main.c **** 
 225:Core/Src/main.c ****   /* USER CODE END I2C1_Init 0 */
 226:Core/Src/main.c **** 
 227:Core/Src/main.c ****   /* USER CODE BEGIN I2C1_Init 1 */
 228:Core/Src/main.c **** 
 229:Core/Src/main.c ****   /* USER CODE END I2C1_Init 1 */
 230:Core/Src/main.c ****   hi2c1.Instance = I2C1;
 231:Core/Src/main.c ****   hi2c1.Init.ClockSpeed = 400000;
 232:Core/Src/main.c ****   hi2c1.Init.DutyCycle = I2C_DUTYCYCLE_2;
 233:Core/Src/main.c ****   hi2c1.Init.OwnAddress1 = 0;
 234:Core/Src/main.c ****   hi2c1.Init.AddressingMode = I2C_ADDRESSINGMODE_7BIT;
 235:Core/Src/main.c ****   hi2c1.Init.DualAddressMode = I2C_DUALADDRESS_DISABLE;
 236:Core/Src/main.c ****   hi2c1.Init.OwnAddress2 = 0;
 237:Core/Src/main.c ****   hi2c1.Init.GeneralCallMode = I2C_GENERALCALL_DISABLE;
 238:Core/Src/main.c ****   hi2c1.Init.NoStretchMode = I2C_NOSTRETCH_DISABLE;
 239:Core/Src/main.c ****   if (HAL_I2C_Init(&hi2c1) != HAL_OK)
 240:Core/Src/main.c ****   {
 241:Core/Src/main.c ****     Error_Handler();
 242:Core/Src/main.c ****   }
 243:Core/Src/main.c ****   /* USER CODE BEGIN I2C1_Init 2 */
 244:Core/Src/main.c **** 
 245:Core/Src/main.c ****   /* USER CODE END I2C1_Init 2 */
 246:Core/Src/main.c **** 
 247:Core/Src/main.c **** }
 248:Core/Src/main.c **** 
 249:Core/Src/main.c **** /**
 250:Core/Src/main.c ****   * @brief USART2 Initialization Function
 251:Core/Src/main.c ****   * @param None
 252:Core/Src/main.c ****   * @retval None
 253:Core/Src/main.c ****   */
 254:Core/Src/main.c **** static void MX_USART2_UART_Init(void)
 255:Core/Src/main.c **** {
 256:Core/Src/main.c **** 
 257:Core/Src/main.c ****   /* USER CODE BEGIN USART2_Init 0 */
 258:Core/Src/main.c **** 
 259:Core/Src/main.c ****   /* USER CODE END USART2_Init 0 */
ARM GAS  C:\Users\triet\AppData\Local\Temp\ccoOOlUu.s 			page 6


 260:Core/Src/main.c **** 
 261:Core/Src/main.c ****   /* USER CODE BEGIN USART2_Init 1 */
 262:Core/Src/main.c **** 
 263:Core/Src/main.c ****   /* USER CODE END USART2_Init 1 */
 264:Core/Src/main.c ****   huart2.Instance = USART2;
 265:Core/Src/main.c ****   huart2.Init.BaudRate = 115200;
 266:Core/Src/main.c ****   huart2.Init.WordLength = UART_WORDLENGTH_8B;
 267:Core/Src/main.c ****   huart2.Init.StopBits = UART_STOPBITS_1;
 268:Core/Src/main.c ****   huart2.Init.Parity = UART_PARITY_NONE;
 269:Core/Src/main.c ****   huart2.Init.Mode = UART_MODE_TX_RX;
 270:Core/Src/main.c ****   huart2.Init.HwFlowCtl = UART_HWCONTROL_NONE;
 271:Core/Src/main.c ****   huart2.Init.OverSampling = UART_OVERSAMPLING_16;
 272:Core/Src/main.c ****   if (HAL_UART_Init(&huart2) != HAL_OK)
 273:Core/Src/main.c ****   {
 274:Core/Src/main.c ****     Error_Handler();
 275:Core/Src/main.c ****   }
 276:Core/Src/main.c ****   /* USER CODE BEGIN USART2_Init 2 */
 277:Core/Src/main.c **** 
 278:Core/Src/main.c ****   /* USER CODE END USART2_Init 2 */
 279:Core/Src/main.c **** 
 280:Core/Src/main.c **** }
 281:Core/Src/main.c **** 
 282:Core/Src/main.c **** /**
 283:Core/Src/main.c ****   * @brief GPIO Initialization Function
 284:Core/Src/main.c ****   * @param None
 285:Core/Src/main.c ****   * @retval None
 286:Core/Src/main.c ****   */
 287:Core/Src/main.c **** static void MX_GPIO_Init(void)
 288:Core/Src/main.c **** {
  28              		.loc 1 288 1 view -0
  29              		.cfi_startproc
  30              		@ args = 0, pretend = 0, frame = 16
  31              		@ frame_needed = 0, uses_anonymous_args = 0
  32              		@ link register save eliminated.
  33 0000 84B0     		sub	sp, sp, #16
  34              	.LCFI0:
  35              		.cfi_def_cfa_offset 16
 289:Core/Src/main.c **** /* USER CODE BEGIN MX_GPIO_Init_1 */
 290:Core/Src/main.c **** /* USER CODE END MX_GPIO_Init_1 */
 291:Core/Src/main.c **** 
 292:Core/Src/main.c ****   /* GPIO Ports Clock Enable */
 293:Core/Src/main.c ****   __HAL_RCC_GPIOH_CLK_ENABLE();
  36              		.loc 1 293 3 view .LVU1
  37              	.LBB4:
  38              		.loc 1 293 3 view .LVU2
  39 0002 0022     		movs	r2, #0
  40 0004 0192     		str	r2, [sp, #4]
  41              		.loc 1 293 3 view .LVU3
  42 0006 104B     		ldr	r3, .L3
  43 0008 196B     		ldr	r1, [r3, #48]
  44 000a 41F08001 		orr	r1, r1, #128
  45 000e 1963     		str	r1, [r3, #48]
  46              		.loc 1 293 3 view .LVU4
  47 0010 196B     		ldr	r1, [r3, #48]
  48 0012 01F08001 		and	r1, r1, #128
  49 0016 0191     		str	r1, [sp, #4]
  50              		.loc 1 293 3 view .LVU5
ARM GAS  C:\Users\triet\AppData\Local\Temp\ccoOOlUu.s 			page 7


  51 0018 0199     		ldr	r1, [sp, #4]
  52              	.LBE4:
  53              		.loc 1 293 3 view .LVU6
 294:Core/Src/main.c ****   __HAL_RCC_GPIOA_CLK_ENABLE();
  54              		.loc 1 294 3 view .LVU7
  55              	.LBB5:
  56              		.loc 1 294 3 view .LVU8
  57 001a 0292     		str	r2, [sp, #8]
  58              		.loc 1 294 3 view .LVU9
  59 001c 196B     		ldr	r1, [r3, #48]
  60 001e 41F00101 		orr	r1, r1, #1
  61 0022 1963     		str	r1, [r3, #48]
  62              		.loc 1 294 3 view .LVU10
  63 0024 196B     		ldr	r1, [r3, #48]
  64 0026 01F00101 		and	r1, r1, #1
  65 002a 0291     		str	r1, [sp, #8]
  66              		.loc 1 294 3 view .LVU11
  67 002c 0299     		ldr	r1, [sp, #8]
  68              	.LBE5:
  69              		.loc 1 294 3 view .LVU12
 295:Core/Src/main.c ****   __HAL_RCC_GPIOB_CLK_ENABLE();
  70              		.loc 1 295 3 view .LVU13
  71              	.LBB6:
  72              		.loc 1 295 3 view .LVU14
  73 002e 0392     		str	r2, [sp, #12]
  74              		.loc 1 295 3 view .LVU15
  75 0030 1A6B     		ldr	r2, [r3, #48]
  76 0032 42F00202 		orr	r2, r2, #2
  77 0036 1A63     		str	r2, [r3, #48]
  78              		.loc 1 295 3 view .LVU16
  79 0038 1B6B     		ldr	r3, [r3, #48]
  80 003a 03F00203 		and	r3, r3, #2
  81 003e 0393     		str	r3, [sp, #12]
  82              		.loc 1 295 3 view .LVU17
  83 0040 039B     		ldr	r3, [sp, #12]
  84              	.LBE6:
  85              		.loc 1 295 3 view .LVU18
 296:Core/Src/main.c **** 
 297:Core/Src/main.c **** /* USER CODE BEGIN MX_GPIO_Init_2 */
 298:Core/Src/main.c **** /* USER CODE END MX_GPIO_Init_2 */
 299:Core/Src/main.c **** }
  86              		.loc 1 299 1 is_stmt 0 view .LVU19
  87 0042 04B0     		add	sp, sp, #16
  88              	.LCFI1:
  89              		.cfi_def_cfa_offset 0
  90              		@ sp needed
  91 0044 7047     		bx	lr
  92              	.L4:
  93 0046 00BF     		.align	2
  94              	.L3:
  95 0048 00380240 		.word	1073887232
  96              		.cfi_endproc
  97              	.LFE137:
  99              		.section	.text.Error_Handler,"ax",%progbits
 100              		.align	1
 101              		.global	Error_Handler
 102              		.syntax unified
ARM GAS  C:\Users\triet\AppData\Local\Temp\ccoOOlUu.s 			page 8


 103              		.thumb
 104              		.thumb_func
 106              	Error_Handler:
 107              	.LFB138:
 300:Core/Src/main.c **** 
 301:Core/Src/main.c **** /* USER CODE BEGIN 4 */
 302:Core/Src/main.c **** 
 303:Core/Src/main.c **** /* USER CODE END 4 */
 304:Core/Src/main.c **** 
 305:Core/Src/main.c **** /**
 306:Core/Src/main.c ****   * @brief  This function is executed in case of error occurrence.
 307:Core/Src/main.c ****   * @retval None
 308:Core/Src/main.c ****   */
 309:Core/Src/main.c **** void Error_Handler(void)
 310:Core/Src/main.c **** {
 108              		.loc 1 310 1 is_stmt 1 view -0
 109              		.cfi_startproc
 110              		@ Volatile: function does not return.
 111              		@ args = 0, pretend = 0, frame = 0
 112              		@ frame_needed = 0, uses_anonymous_args = 0
 113              		@ link register save eliminated.
 311:Core/Src/main.c ****   /* USER CODE BEGIN Error_Handler_Debug */
 312:Core/Src/main.c ****   /* User can add his own implementation to report the HAL error return state */
 313:Core/Src/main.c ****   __disable_irq();
 114              		.loc 1 313 3 view .LVU21
 115              	.LBB7:
 116              	.LBI7:
 117              		.file 2 "Drivers/CMSIS/Include/cmsis_gcc.h"
   1:Drivers/CMSIS/Include/cmsis_gcc.h **** /**************************************************************************//**
   2:Drivers/CMSIS/Include/cmsis_gcc.h ****  * @file     cmsis_gcc.h
   3:Drivers/CMSIS/Include/cmsis_gcc.h ****  * @brief    CMSIS compiler GCC header file
   4:Drivers/CMSIS/Include/cmsis_gcc.h ****  * @version  V5.0.4
   5:Drivers/CMSIS/Include/cmsis_gcc.h ****  * @date     09. April 2018
   6:Drivers/CMSIS/Include/cmsis_gcc.h ****  ******************************************************************************/
   7:Drivers/CMSIS/Include/cmsis_gcc.h **** /*
   8:Drivers/CMSIS/Include/cmsis_gcc.h ****  * Copyright (c) 2009-2018 Arm Limited. All rights reserved.
   9:Drivers/CMSIS/Include/cmsis_gcc.h ****  *
  10:Drivers/CMSIS/Include/cmsis_gcc.h ****  * SPDX-License-Identifier: Apache-2.0
  11:Drivers/CMSIS/Include/cmsis_gcc.h ****  *
  12:Drivers/CMSIS/Include/cmsis_gcc.h ****  * Licensed under the Apache License, Version 2.0 (the License); you may
  13:Drivers/CMSIS/Include/cmsis_gcc.h ****  * not use this file except in compliance with the License.
  14:Drivers/CMSIS/Include/cmsis_gcc.h ****  * You may obtain a copy of the License at
  15:Drivers/CMSIS/Include/cmsis_gcc.h ****  *
  16:Drivers/CMSIS/Include/cmsis_gcc.h ****  * www.apache.org/licenses/LICENSE-2.0
  17:Drivers/CMSIS/Include/cmsis_gcc.h ****  *
  18:Drivers/CMSIS/Include/cmsis_gcc.h ****  * Unless required by applicable law or agreed to in writing, software
  19:Drivers/CMSIS/Include/cmsis_gcc.h ****  * distributed under the License is distributed on an AS IS BASIS, WITHOUT
  20:Drivers/CMSIS/Include/cmsis_gcc.h ****  * WARRANTIES OR CONDITIONS OF ANY KIND, either express or implied.
  21:Drivers/CMSIS/Include/cmsis_gcc.h ****  * See the License for the specific language governing permissions and
  22:Drivers/CMSIS/Include/cmsis_gcc.h ****  * limitations under the License.
  23:Drivers/CMSIS/Include/cmsis_gcc.h ****  */
  24:Drivers/CMSIS/Include/cmsis_gcc.h **** 
  25:Drivers/CMSIS/Include/cmsis_gcc.h **** #ifndef __CMSIS_GCC_H
  26:Drivers/CMSIS/Include/cmsis_gcc.h **** #define __CMSIS_GCC_H
  27:Drivers/CMSIS/Include/cmsis_gcc.h **** 
  28:Drivers/CMSIS/Include/cmsis_gcc.h **** /* ignore some GCC warnings */
  29:Drivers/CMSIS/Include/cmsis_gcc.h **** #pragma GCC diagnostic push
ARM GAS  C:\Users\triet\AppData\Local\Temp\ccoOOlUu.s 			page 9


  30:Drivers/CMSIS/Include/cmsis_gcc.h **** #pragma GCC diagnostic ignored "-Wsign-conversion"
  31:Drivers/CMSIS/Include/cmsis_gcc.h **** #pragma GCC diagnostic ignored "-Wconversion"
  32:Drivers/CMSIS/Include/cmsis_gcc.h **** #pragma GCC diagnostic ignored "-Wunused-parameter"
  33:Drivers/CMSIS/Include/cmsis_gcc.h **** 
  34:Drivers/CMSIS/Include/cmsis_gcc.h **** /* Fallback for __has_builtin */
  35:Drivers/CMSIS/Include/cmsis_gcc.h **** #ifndef __has_builtin
  36:Drivers/CMSIS/Include/cmsis_gcc.h ****   #define __has_builtin(x) (0)
  37:Drivers/CMSIS/Include/cmsis_gcc.h **** #endif
  38:Drivers/CMSIS/Include/cmsis_gcc.h **** 
  39:Drivers/CMSIS/Include/cmsis_gcc.h **** /* CMSIS compiler specific defines */
  40:Drivers/CMSIS/Include/cmsis_gcc.h **** #ifndef   __ASM
  41:Drivers/CMSIS/Include/cmsis_gcc.h ****   #define __ASM                                  __asm
  42:Drivers/CMSIS/Include/cmsis_gcc.h **** #endif
  43:Drivers/CMSIS/Include/cmsis_gcc.h **** #ifndef   __INLINE
  44:Drivers/CMSIS/Include/cmsis_gcc.h ****   #define __INLINE                               inline
  45:Drivers/CMSIS/Include/cmsis_gcc.h **** #endif
  46:Drivers/CMSIS/Include/cmsis_gcc.h **** #ifndef   __STATIC_INLINE
  47:Drivers/CMSIS/Include/cmsis_gcc.h ****   #define __STATIC_INLINE                        static inline
  48:Drivers/CMSIS/Include/cmsis_gcc.h **** #endif
  49:Drivers/CMSIS/Include/cmsis_gcc.h **** #ifndef   __STATIC_FORCEINLINE                 
  50:Drivers/CMSIS/Include/cmsis_gcc.h ****   #define __STATIC_FORCEINLINE                   __attribute__((always_inline)) static inline
  51:Drivers/CMSIS/Include/cmsis_gcc.h **** #endif                                           
  52:Drivers/CMSIS/Include/cmsis_gcc.h **** #ifndef   __NO_RETURN
  53:Drivers/CMSIS/Include/cmsis_gcc.h ****   #define __NO_RETURN                            __attribute__((__noreturn__))
  54:Drivers/CMSIS/Include/cmsis_gcc.h **** #endif
  55:Drivers/CMSIS/Include/cmsis_gcc.h **** #ifndef   __USED
  56:Drivers/CMSIS/Include/cmsis_gcc.h ****   #define __USED                                 __attribute__((used))
  57:Drivers/CMSIS/Include/cmsis_gcc.h **** #endif
  58:Drivers/CMSIS/Include/cmsis_gcc.h **** #ifndef   __WEAK
  59:Drivers/CMSIS/Include/cmsis_gcc.h ****   #define __WEAK                                 __attribute__((weak))
  60:Drivers/CMSIS/Include/cmsis_gcc.h **** #endif
  61:Drivers/CMSIS/Include/cmsis_gcc.h **** #ifndef   __PACKED
  62:Drivers/CMSIS/Include/cmsis_gcc.h ****   #define __PACKED                               __attribute__((packed, aligned(1)))
  63:Drivers/CMSIS/Include/cmsis_gcc.h **** #endif
  64:Drivers/CMSIS/Include/cmsis_gcc.h **** #ifndef   __PACKED_STRUCT
  65:Drivers/CMSIS/Include/cmsis_gcc.h ****   #define __PACKED_STRUCT                        struct __attribute__((packed, aligned(1)))
  66:Drivers/CMSIS/Include/cmsis_gcc.h **** #endif
  67:Drivers/CMSIS/Include/cmsis_gcc.h **** #ifndef   __PACKED_UNION
  68:Drivers/CMSIS/Include/cmsis_gcc.h ****   #define __PACKED_UNION                         union __attribute__((packed, aligned(1)))
  69:Drivers/CMSIS/Include/cmsis_gcc.h **** #endif
  70:Drivers/CMSIS/Include/cmsis_gcc.h **** #ifndef   __UNALIGNED_UINT32        /* deprecated */
  71:Drivers/CMSIS/Include/cmsis_gcc.h ****   #pragma GCC diagnostic push
  72:Drivers/CMSIS/Include/cmsis_gcc.h ****   #pragma GCC diagnostic ignored "-Wpacked"
  73:Drivers/CMSIS/Include/cmsis_gcc.h ****   #pragma GCC diagnostic ignored "-Wattributes"
  74:Drivers/CMSIS/Include/cmsis_gcc.h ****   struct __attribute__((packed)) T_UINT32 { uint32_t v; };
  75:Drivers/CMSIS/Include/cmsis_gcc.h ****   #pragma GCC diagnostic pop
  76:Drivers/CMSIS/Include/cmsis_gcc.h ****   #define __UNALIGNED_UINT32(x)                  (((struct T_UINT32 *)(x))->v)
  77:Drivers/CMSIS/Include/cmsis_gcc.h **** #endif
  78:Drivers/CMSIS/Include/cmsis_gcc.h **** #ifndef   __UNALIGNED_UINT16_WRITE
  79:Drivers/CMSIS/Include/cmsis_gcc.h ****   #pragma GCC diagnostic push
  80:Drivers/CMSIS/Include/cmsis_gcc.h ****   #pragma GCC diagnostic ignored "-Wpacked"
  81:Drivers/CMSIS/Include/cmsis_gcc.h ****   #pragma GCC diagnostic ignored "-Wattributes"
  82:Drivers/CMSIS/Include/cmsis_gcc.h ****   __PACKED_STRUCT T_UINT16_WRITE { uint16_t v; };
  83:Drivers/CMSIS/Include/cmsis_gcc.h ****   #pragma GCC diagnostic pop
  84:Drivers/CMSIS/Include/cmsis_gcc.h ****   #define __UNALIGNED_UINT16_WRITE(addr, val)    (void)((((struct T_UINT16_WRITE *)(void *)(addr))-
  85:Drivers/CMSIS/Include/cmsis_gcc.h **** #endif
  86:Drivers/CMSIS/Include/cmsis_gcc.h **** #ifndef   __UNALIGNED_UINT16_READ
ARM GAS  C:\Users\triet\AppData\Local\Temp\ccoOOlUu.s 			page 10


  87:Drivers/CMSIS/Include/cmsis_gcc.h ****   #pragma GCC diagnostic push
  88:Drivers/CMSIS/Include/cmsis_gcc.h ****   #pragma GCC diagnostic ignored "-Wpacked"
  89:Drivers/CMSIS/Include/cmsis_gcc.h ****   #pragma GCC diagnostic ignored "-Wattributes"
  90:Drivers/CMSIS/Include/cmsis_gcc.h ****   __PACKED_STRUCT T_UINT16_READ { uint16_t v; };
  91:Drivers/CMSIS/Include/cmsis_gcc.h ****   #pragma GCC diagnostic pop
  92:Drivers/CMSIS/Include/cmsis_gcc.h ****   #define __UNALIGNED_UINT16_READ(addr)          (((const struct T_UINT16_READ *)(const void *)(add
  93:Drivers/CMSIS/Include/cmsis_gcc.h **** #endif
  94:Drivers/CMSIS/Include/cmsis_gcc.h **** #ifndef   __UNALIGNED_UINT32_WRITE
  95:Drivers/CMSIS/Include/cmsis_gcc.h ****   #pragma GCC diagnostic push
  96:Drivers/CMSIS/Include/cmsis_gcc.h ****   #pragma GCC diagnostic ignored "-Wpacked"
  97:Drivers/CMSIS/Include/cmsis_gcc.h ****   #pragma GCC diagnostic ignored "-Wattributes"
  98:Drivers/CMSIS/Include/cmsis_gcc.h ****   __PACKED_STRUCT T_UINT32_WRITE { uint32_t v; };
  99:Drivers/CMSIS/Include/cmsis_gcc.h ****   #pragma GCC diagnostic pop
 100:Drivers/CMSIS/Include/cmsis_gcc.h ****   #define __UNALIGNED_UINT32_WRITE(addr, val)    (void)((((struct T_UINT32_WRITE *)(void *)(addr))-
 101:Drivers/CMSIS/Include/cmsis_gcc.h **** #endif
 102:Drivers/CMSIS/Include/cmsis_gcc.h **** #ifndef   __UNALIGNED_UINT32_READ
 103:Drivers/CMSIS/Include/cmsis_gcc.h ****   #pragma GCC diagnostic push
 104:Drivers/CMSIS/Include/cmsis_gcc.h ****   #pragma GCC diagnostic ignored "-Wpacked"
 105:Drivers/CMSIS/Include/cmsis_gcc.h ****   #pragma GCC diagnostic ignored "-Wattributes"
 106:Drivers/CMSIS/Include/cmsis_gcc.h ****   __PACKED_STRUCT T_UINT32_READ { uint32_t v; };
 107:Drivers/CMSIS/Include/cmsis_gcc.h ****   #pragma GCC diagnostic pop
 108:Drivers/CMSIS/Include/cmsis_gcc.h ****   #define __UNALIGNED_UINT32_READ(addr)          (((const struct T_UINT32_READ *)(const void *)(add
 109:Drivers/CMSIS/Include/cmsis_gcc.h **** #endif
 110:Drivers/CMSIS/Include/cmsis_gcc.h **** #ifndef   __ALIGNED
 111:Drivers/CMSIS/Include/cmsis_gcc.h ****   #define __ALIGNED(x)                           __attribute__((aligned(x)))
 112:Drivers/CMSIS/Include/cmsis_gcc.h **** #endif
 113:Drivers/CMSIS/Include/cmsis_gcc.h **** #ifndef   __RESTRICT
 114:Drivers/CMSIS/Include/cmsis_gcc.h ****   #define __RESTRICT                             __restrict
 115:Drivers/CMSIS/Include/cmsis_gcc.h **** #endif
 116:Drivers/CMSIS/Include/cmsis_gcc.h **** 
 117:Drivers/CMSIS/Include/cmsis_gcc.h **** 
 118:Drivers/CMSIS/Include/cmsis_gcc.h **** /* ###########################  Core Function Access  ########################### */
 119:Drivers/CMSIS/Include/cmsis_gcc.h **** /** \ingroup  CMSIS_Core_FunctionInterface
 120:Drivers/CMSIS/Include/cmsis_gcc.h ****     \defgroup CMSIS_Core_RegAccFunctions CMSIS Core Register Access Functions
 121:Drivers/CMSIS/Include/cmsis_gcc.h ****   @{
 122:Drivers/CMSIS/Include/cmsis_gcc.h ****  */
 123:Drivers/CMSIS/Include/cmsis_gcc.h **** 
 124:Drivers/CMSIS/Include/cmsis_gcc.h **** /**
 125:Drivers/CMSIS/Include/cmsis_gcc.h ****   \brief   Enable IRQ Interrupts
 126:Drivers/CMSIS/Include/cmsis_gcc.h ****   \details Enables IRQ interrupts by clearing the I-bit in the CPSR.
 127:Drivers/CMSIS/Include/cmsis_gcc.h ****            Can only be executed in Privileged modes.
 128:Drivers/CMSIS/Include/cmsis_gcc.h ****  */
 129:Drivers/CMSIS/Include/cmsis_gcc.h **** __STATIC_FORCEINLINE void __enable_irq(void)
 130:Drivers/CMSIS/Include/cmsis_gcc.h **** {
 131:Drivers/CMSIS/Include/cmsis_gcc.h ****   __ASM volatile ("cpsie i" : : : "memory");
 132:Drivers/CMSIS/Include/cmsis_gcc.h **** }
 133:Drivers/CMSIS/Include/cmsis_gcc.h **** 
 134:Drivers/CMSIS/Include/cmsis_gcc.h **** 
 135:Drivers/CMSIS/Include/cmsis_gcc.h **** /**
 136:Drivers/CMSIS/Include/cmsis_gcc.h ****   \brief   Disable IRQ Interrupts
 137:Drivers/CMSIS/Include/cmsis_gcc.h ****   \details Disables IRQ interrupts by setting the I-bit in the CPSR.
 138:Drivers/CMSIS/Include/cmsis_gcc.h ****            Can only be executed in Privileged modes.
 139:Drivers/CMSIS/Include/cmsis_gcc.h ****  */
 140:Drivers/CMSIS/Include/cmsis_gcc.h **** __STATIC_FORCEINLINE void __disable_irq(void)
 118              		.loc 2 140 27 view .LVU22
 119              	.LBB8:
 141:Drivers/CMSIS/Include/cmsis_gcc.h **** {
ARM GAS  C:\Users\triet\AppData\Local\Temp\ccoOOlUu.s 			page 11


 142:Drivers/CMSIS/Include/cmsis_gcc.h ****   __ASM volatile ("cpsid i" : : : "memory");
 120              		.loc 2 142 3 view .LVU23
 121              		.syntax unified
 122              	@ 142 "Drivers/CMSIS/Include/cmsis_gcc.h" 1
 123 0000 72B6     		cpsid i
 124              	@ 0 "" 2
 125              		.thumb
 126              		.syntax unified
 127              	.L6:
 128              	.LBE8:
 129              	.LBE7:
 314:Core/Src/main.c ****   while (1)
 130              		.loc 1 314 3 discriminator 1 view .LVU24
 315:Core/Src/main.c ****   {
 316:Core/Src/main.c ****   }
 131              		.loc 1 316 3 discriminator 1 view .LVU25
 314:Core/Src/main.c ****   while (1)
 132              		.loc 1 314 9 discriminator 1 view .LVU26
 133 0002 FEE7     		b	.L6
 134              		.cfi_endproc
 135              	.LFE138:
 137              		.section	.text.MX_I2C1_Init,"ax",%progbits
 138              		.align	1
 139              		.syntax unified
 140              		.thumb
 141              		.thumb_func
 143              	MX_I2C1_Init:
 144              	.LFB135:
 221:Core/Src/main.c **** 
 145              		.loc 1 221 1 view -0
 146              		.cfi_startproc
 147              		@ args = 0, pretend = 0, frame = 0
 148              		@ frame_needed = 0, uses_anonymous_args = 0
 149 0000 08B5     		push	{r3, lr}
 150              	.LCFI2:
 151              		.cfi_def_cfa_offset 8
 152              		.cfi_offset 3, -8
 153              		.cfi_offset 14, -4
 230:Core/Src/main.c ****   hi2c1.Init.ClockSpeed = 400000;
 154              		.loc 1 230 3 view .LVU28
 230:Core/Src/main.c ****   hi2c1.Init.ClockSpeed = 400000;
 155              		.loc 1 230 18 is_stmt 0 view .LVU29
 156 0002 0A48     		ldr	r0, .L11
 157 0004 0A4B     		ldr	r3, .L11+4
 158 0006 0360     		str	r3, [r0]
 231:Core/Src/main.c ****   hi2c1.Init.DutyCycle = I2C_DUTYCYCLE_2;
 159              		.loc 1 231 3 is_stmt 1 view .LVU30
 231:Core/Src/main.c ****   hi2c1.Init.DutyCycle = I2C_DUTYCYCLE_2;
 160              		.loc 1 231 25 is_stmt 0 view .LVU31
 161 0008 0A4B     		ldr	r3, .L11+8
 162 000a 4360     		str	r3, [r0, #4]
 232:Core/Src/main.c ****   hi2c1.Init.OwnAddress1 = 0;
 163              		.loc 1 232 3 is_stmt 1 view .LVU32
 232:Core/Src/main.c ****   hi2c1.Init.OwnAddress1 = 0;
 164              		.loc 1 232 24 is_stmt 0 view .LVU33
 165 000c 0023     		movs	r3, #0
 166 000e 8360     		str	r3, [r0, #8]
ARM GAS  C:\Users\triet\AppData\Local\Temp\ccoOOlUu.s 			page 12


 233:Core/Src/main.c ****   hi2c1.Init.AddressingMode = I2C_ADDRESSINGMODE_7BIT;
 167              		.loc 1 233 3 is_stmt 1 view .LVU34
 233:Core/Src/main.c ****   hi2c1.Init.AddressingMode = I2C_ADDRESSINGMODE_7BIT;
 168              		.loc 1 233 26 is_stmt 0 view .LVU35
 169 0010 C360     		str	r3, [r0, #12]
 234:Core/Src/main.c ****   hi2c1.Init.DualAddressMode = I2C_DUALADDRESS_DISABLE;
 170              		.loc 1 234 3 is_stmt 1 view .LVU36
 234:Core/Src/main.c ****   hi2c1.Init.DualAddressMode = I2C_DUALADDRESS_DISABLE;
 171              		.loc 1 234 29 is_stmt 0 view .LVU37
 172 0012 4FF48042 		mov	r2, #16384
 173 0016 0261     		str	r2, [r0, #16]
 235:Core/Src/main.c ****   hi2c1.Init.OwnAddress2 = 0;
 174              		.loc 1 235 3 is_stmt 1 view .LVU38
 235:Core/Src/main.c ****   hi2c1.Init.OwnAddress2 = 0;
 175              		.loc 1 235 30 is_stmt 0 view .LVU39
 176 0018 4361     		str	r3, [r0, #20]
 236:Core/Src/main.c ****   hi2c1.Init.GeneralCallMode = I2C_GENERALCALL_DISABLE;
 177              		.loc 1 236 3 is_stmt 1 view .LVU40
 236:Core/Src/main.c ****   hi2c1.Init.GeneralCallMode = I2C_GENERALCALL_DISABLE;
 178              		.loc 1 236 26 is_stmt 0 view .LVU41
 179 001a 8361     		str	r3, [r0, #24]
 237:Core/Src/main.c ****   hi2c1.Init.NoStretchMode = I2C_NOSTRETCH_DISABLE;
 180              		.loc 1 237 3 is_stmt 1 view .LVU42
 237:Core/Src/main.c ****   hi2c1.Init.NoStretchMode = I2C_NOSTRETCH_DISABLE;
 181              		.loc 1 237 30 is_stmt 0 view .LVU43
 182 001c C361     		str	r3, [r0, #28]
 238:Core/Src/main.c ****   if (HAL_I2C_Init(&hi2c1) != HAL_OK)
 183              		.loc 1 238 3 is_stmt 1 view .LVU44
 238:Core/Src/main.c ****   if (HAL_I2C_Init(&hi2c1) != HAL_OK)
 184              		.loc 1 238 28 is_stmt 0 view .LVU45
 185 001e 0362     		str	r3, [r0, #32]
 239:Core/Src/main.c ****   {
 186              		.loc 1 239 3 is_stmt 1 view .LVU46
 239:Core/Src/main.c ****   {
 187              		.loc 1 239 7 is_stmt 0 view .LVU47
 188 0020 FFF7FEFF 		bl	HAL_I2C_Init
 189              	.LVL0:
 239:Core/Src/main.c ****   {
 190              		.loc 1 239 6 view .LVU48
 191 0024 00B9     		cbnz	r0, .L10
 247:Core/Src/main.c **** 
 192              		.loc 1 247 1 view .LVU49
 193 0026 08BD     		pop	{r3, pc}
 194              	.L10:
 241:Core/Src/main.c ****   }
 195              		.loc 1 241 5 is_stmt 1 view .LVU50
 196 0028 FFF7FEFF 		bl	Error_Handler
 197              	.LVL1:
 198              	.L12:
 199              		.align	2
 200              	.L11:
 201 002c 00000000 		.word	.LANCHOR0
 202 0030 00540040 		.word	1073763328
 203 0034 801A0600 		.word	400000
 204              		.cfi_endproc
 205              	.LFE135:
 207              		.section	.text.MX_USART2_UART_Init,"ax",%progbits
ARM GAS  C:\Users\triet\AppData\Local\Temp\ccoOOlUu.s 			page 13


 208              		.align	1
 209              		.syntax unified
 210              		.thumb
 211              		.thumb_func
 213              	MX_USART2_UART_Init:
 214              	.LFB136:
 255:Core/Src/main.c **** 
 215              		.loc 1 255 1 view -0
 216              		.cfi_startproc
 217              		@ args = 0, pretend = 0, frame = 0
 218              		@ frame_needed = 0, uses_anonymous_args = 0
 219 0000 08B5     		push	{r3, lr}
 220              	.LCFI3:
 221              		.cfi_def_cfa_offset 8
 222              		.cfi_offset 3, -8
 223              		.cfi_offset 14, -4
 264:Core/Src/main.c ****   huart2.Init.BaudRate = 115200;
 224              		.loc 1 264 3 view .LVU52
 264:Core/Src/main.c ****   huart2.Init.BaudRate = 115200;
 225              		.loc 1 264 19 is_stmt 0 view .LVU53
 226 0002 0A48     		ldr	r0, .L17
 227 0004 0A4B     		ldr	r3, .L17+4
 228 0006 0360     		str	r3, [r0]
 265:Core/Src/main.c ****   huart2.Init.WordLength = UART_WORDLENGTH_8B;
 229              		.loc 1 265 3 is_stmt 1 view .LVU54
 265:Core/Src/main.c ****   huart2.Init.WordLength = UART_WORDLENGTH_8B;
 230              		.loc 1 265 24 is_stmt 0 view .LVU55
 231 0008 4FF4E133 		mov	r3, #115200
 232 000c 4360     		str	r3, [r0, #4]
 266:Core/Src/main.c ****   huart2.Init.StopBits = UART_STOPBITS_1;
 233              		.loc 1 266 3 is_stmt 1 view .LVU56
 266:Core/Src/main.c ****   huart2.Init.StopBits = UART_STOPBITS_1;
 234              		.loc 1 266 26 is_stmt 0 view .LVU57
 235 000e 0023     		movs	r3, #0
 236 0010 8360     		str	r3, [r0, #8]
 267:Core/Src/main.c ****   huart2.Init.Parity = UART_PARITY_NONE;
 237              		.loc 1 267 3 is_stmt 1 view .LVU58
 267:Core/Src/main.c ****   huart2.Init.Parity = UART_PARITY_NONE;
 238              		.loc 1 267 24 is_stmt 0 view .LVU59
 239 0012 C360     		str	r3, [r0, #12]
 268:Core/Src/main.c ****   huart2.Init.Mode = UART_MODE_TX_RX;
 240              		.loc 1 268 3 is_stmt 1 view .LVU60
 268:Core/Src/main.c ****   huart2.Init.Mode = UART_MODE_TX_RX;
 241              		.loc 1 268 22 is_stmt 0 view .LVU61
 242 0014 0361     		str	r3, [r0, #16]
 269:Core/Src/main.c ****   huart2.Init.HwFlowCtl = UART_HWCONTROL_NONE;
 243              		.loc 1 269 3 is_stmt 1 view .LVU62
 269:Core/Src/main.c ****   huart2.Init.HwFlowCtl = UART_HWCONTROL_NONE;
 244              		.loc 1 269 20 is_stmt 0 view .LVU63
 245 0016 0C22     		movs	r2, #12
 246 0018 4261     		str	r2, [r0, #20]
 270:Core/Src/main.c ****   huart2.Init.OverSampling = UART_OVERSAMPLING_16;
 247              		.loc 1 270 3 is_stmt 1 view .LVU64
 270:Core/Src/main.c ****   huart2.Init.OverSampling = UART_OVERSAMPLING_16;
 248              		.loc 1 270 25 is_stmt 0 view .LVU65
 249 001a 8361     		str	r3, [r0, #24]
 271:Core/Src/main.c ****   if (HAL_UART_Init(&huart2) != HAL_OK)
ARM GAS  C:\Users\triet\AppData\Local\Temp\ccoOOlUu.s 			page 14


 250              		.loc 1 271 3 is_stmt 1 view .LVU66
 271:Core/Src/main.c ****   if (HAL_UART_Init(&huart2) != HAL_OK)
 251              		.loc 1 271 28 is_stmt 0 view .LVU67
 252 001c C361     		str	r3, [r0, #28]
 272:Core/Src/main.c ****   {
 253              		.loc 1 272 3 is_stmt 1 view .LVU68
 272:Core/Src/main.c ****   {
 254              		.loc 1 272 7 is_stmt 0 view .LVU69
 255 001e FFF7FEFF 		bl	HAL_UART_Init
 256              	.LVL2:
 272:Core/Src/main.c ****   {
 257              		.loc 1 272 6 view .LVU70
 258 0022 00B9     		cbnz	r0, .L16
 280:Core/Src/main.c **** 
 259              		.loc 1 280 1 view .LVU71
 260 0024 08BD     		pop	{r3, pc}
 261              	.L16:
 274:Core/Src/main.c ****   }
 262              		.loc 1 274 5 is_stmt 1 view .LVU72
 263 0026 FFF7FEFF 		bl	Error_Handler
 264              	.LVL3:
 265              	.L18:
 266 002a 00BF     		.align	2
 267              	.L17:
 268 002c 00000000 		.word	.LANCHOR1
 269 0030 00440040 		.word	1073759232
 270              		.cfi_endproc
 271              	.LFE136:
 273              		.section	.text.SystemClock_Config,"ax",%progbits
 274              		.align	1
 275              		.global	SystemClock_Config
 276              		.syntax unified
 277              		.thumb
 278              		.thumb_func
 280              	SystemClock_Config:
 281              	.LFB134:
 167:Core/Src/main.c ****   RCC_OscInitTypeDef RCC_OscInitStruct = {0};
 282              		.loc 1 167 1 view -0
 283              		.cfi_startproc
 284              		@ args = 0, pretend = 0, frame = 80
 285              		@ frame_needed = 0, uses_anonymous_args = 0
 286 0000 00B5     		push	{lr}
 287              	.LCFI4:
 288              		.cfi_def_cfa_offset 4
 289              		.cfi_offset 14, -4
 290 0002 95B0     		sub	sp, sp, #84
 291              	.LCFI5:
 292              		.cfi_def_cfa_offset 88
 168:Core/Src/main.c ****   RCC_ClkInitTypeDef RCC_ClkInitStruct = {0};
 293              		.loc 1 168 3 view .LVU74
 168:Core/Src/main.c ****   RCC_ClkInitTypeDef RCC_ClkInitStruct = {0};
 294              		.loc 1 168 22 is_stmt 0 view .LVU75
 295 0004 3422     		movs	r2, #52
 296 0006 0021     		movs	r1, #0
 297 0008 07A8     		add	r0, sp, #28
 298 000a FFF7FEFF 		bl	memset
 299              	.LVL4:
ARM GAS  C:\Users\triet\AppData\Local\Temp\ccoOOlUu.s 			page 15


 169:Core/Src/main.c **** 
 300              		.loc 1 169 3 is_stmt 1 view .LVU76
 169:Core/Src/main.c **** 
 301              		.loc 1 169 22 is_stmt 0 view .LVU77
 302 000e 0023     		movs	r3, #0
 303 0010 0293     		str	r3, [sp, #8]
 304 0012 0393     		str	r3, [sp, #12]
 305 0014 0493     		str	r3, [sp, #16]
 306 0016 0593     		str	r3, [sp, #20]
 307 0018 0693     		str	r3, [sp, #24]
 173:Core/Src/main.c ****   __HAL_PWR_VOLTAGESCALING_CONFIG(PWR_REGULATOR_VOLTAGE_SCALE1);
 308              		.loc 1 173 3 is_stmt 1 view .LVU78
 309              	.LBB9:
 173:Core/Src/main.c ****   __HAL_PWR_VOLTAGESCALING_CONFIG(PWR_REGULATOR_VOLTAGE_SCALE1);
 310              		.loc 1 173 3 view .LVU79
 311 001a 0093     		str	r3, [sp]
 173:Core/Src/main.c ****   __HAL_PWR_VOLTAGESCALING_CONFIG(PWR_REGULATOR_VOLTAGE_SCALE1);
 312              		.loc 1 173 3 view .LVU80
 313 001c 234A     		ldr	r2, .L27
 314 001e 116C     		ldr	r1, [r2, #64]
 315 0020 41F08051 		orr	r1, r1, #268435456
 316 0024 1164     		str	r1, [r2, #64]
 173:Core/Src/main.c ****   __HAL_PWR_VOLTAGESCALING_CONFIG(PWR_REGULATOR_VOLTAGE_SCALE1);
 317              		.loc 1 173 3 view .LVU81
 318 0026 126C     		ldr	r2, [r2, #64]
 319 0028 02F08052 		and	r2, r2, #268435456
 320 002c 0092     		str	r2, [sp]
 173:Core/Src/main.c ****   __HAL_PWR_VOLTAGESCALING_CONFIG(PWR_REGULATOR_VOLTAGE_SCALE1);
 321              		.loc 1 173 3 view .LVU82
 322 002e 009A     		ldr	r2, [sp]
 323              	.LBE9:
 173:Core/Src/main.c ****   __HAL_PWR_VOLTAGESCALING_CONFIG(PWR_REGULATOR_VOLTAGE_SCALE1);
 324              		.loc 1 173 3 view .LVU83
 174:Core/Src/main.c **** 
 325              		.loc 1 174 3 view .LVU84
 326              	.LBB10:
 174:Core/Src/main.c **** 
 327              		.loc 1 174 3 view .LVU85
 328 0030 0193     		str	r3, [sp, #4]
 174:Core/Src/main.c **** 
 329              		.loc 1 174 3 view .LVU86
 330 0032 1F4B     		ldr	r3, .L27+4
 331 0034 1A68     		ldr	r2, [r3]
 332 0036 42F44042 		orr	r2, r2, #49152
 333 003a 1A60     		str	r2, [r3]
 174:Core/Src/main.c **** 
 334              		.loc 1 174 3 view .LVU87
 335 003c 1B68     		ldr	r3, [r3]
 336 003e 03F44043 		and	r3, r3, #49152
 337 0042 0193     		str	r3, [sp, #4]
 174:Core/Src/main.c **** 
 338              		.loc 1 174 3 view .LVU88
 339 0044 019B     		ldr	r3, [sp, #4]
 340              	.LBE10:
 174:Core/Src/main.c **** 
 341              		.loc 1 174 3 view .LVU89
 179:Core/Src/main.c ****   RCC_OscInitStruct.HSEState = RCC_HSE_ON;
ARM GAS  C:\Users\triet\AppData\Local\Temp\ccoOOlUu.s 			page 16


 342              		.loc 1 179 3 view .LVU90
 179:Core/Src/main.c ****   RCC_OscInitStruct.HSEState = RCC_HSE_ON;
 343              		.loc 1 179 36 is_stmt 0 view .LVU91
 344 0046 0123     		movs	r3, #1
 345 0048 0793     		str	r3, [sp, #28]
 180:Core/Src/main.c ****   RCC_OscInitStruct.PLL.PLLState = RCC_PLL_ON;
 346              		.loc 1 180 3 is_stmt 1 view .LVU92
 180:Core/Src/main.c ****   RCC_OscInitStruct.PLL.PLLState = RCC_PLL_ON;
 347              		.loc 1 180 30 is_stmt 0 view .LVU93
 348 004a 4FF48033 		mov	r3, #65536
 349 004e 0893     		str	r3, [sp, #32]
 181:Core/Src/main.c ****   RCC_OscInitStruct.PLL.PLLSource = RCC_PLLSOURCE_HSE;
 350              		.loc 1 181 3 is_stmt 1 view .LVU94
 181:Core/Src/main.c ****   RCC_OscInitStruct.PLL.PLLSource = RCC_PLLSOURCE_HSE;
 351              		.loc 1 181 34 is_stmt 0 view .LVU95
 352 0050 0223     		movs	r3, #2
 353 0052 0D93     		str	r3, [sp, #52]
 182:Core/Src/main.c ****   RCC_OscInitStruct.PLL.PLLM = 4;
 354              		.loc 1 182 3 is_stmt 1 view .LVU96
 182:Core/Src/main.c ****   RCC_OscInitStruct.PLL.PLLM = 4;
 355              		.loc 1 182 35 is_stmt 0 view .LVU97
 356 0054 4FF48002 		mov	r2, #4194304
 357 0058 0E92     		str	r2, [sp, #56]
 183:Core/Src/main.c ****   RCC_OscInitStruct.PLL.PLLN = 180;
 358              		.loc 1 183 3 is_stmt 1 view .LVU98
 183:Core/Src/main.c ****   RCC_OscInitStruct.PLL.PLLN = 180;
 359              		.loc 1 183 30 is_stmt 0 view .LVU99
 360 005a 0422     		movs	r2, #4
 361 005c 0F92     		str	r2, [sp, #60]
 184:Core/Src/main.c ****   RCC_OscInitStruct.PLL.PLLP = RCC_PLLP_DIV2;
 362              		.loc 1 184 3 is_stmt 1 view .LVU100
 184:Core/Src/main.c ****   RCC_OscInitStruct.PLL.PLLP = RCC_PLLP_DIV2;
 363              		.loc 1 184 30 is_stmt 0 view .LVU101
 364 005e B422     		movs	r2, #180
 365 0060 1092     		str	r2, [sp, #64]
 185:Core/Src/main.c ****   RCC_OscInitStruct.PLL.PLLQ = 2;
 366              		.loc 1 185 3 is_stmt 1 view .LVU102
 185:Core/Src/main.c ****   RCC_OscInitStruct.PLL.PLLQ = 2;
 367              		.loc 1 185 30 is_stmt 0 view .LVU103
 368 0062 1193     		str	r3, [sp, #68]
 186:Core/Src/main.c ****   RCC_OscInitStruct.PLL.PLLR = 2;
 369              		.loc 1 186 3 is_stmt 1 view .LVU104
 186:Core/Src/main.c ****   RCC_OscInitStruct.PLL.PLLR = 2;
 370              		.loc 1 186 30 is_stmt 0 view .LVU105
 371 0064 1293     		str	r3, [sp, #72]
 187:Core/Src/main.c ****   if (HAL_RCC_OscConfig(&RCC_OscInitStruct) != HAL_OK)
 372              		.loc 1 187 3 is_stmt 1 view .LVU106
 187:Core/Src/main.c ****   if (HAL_RCC_OscConfig(&RCC_OscInitStruct) != HAL_OK)
 373              		.loc 1 187 30 is_stmt 0 view .LVU107
 374 0066 1393     		str	r3, [sp, #76]
 188:Core/Src/main.c ****   {
 375              		.loc 1 188 3 is_stmt 1 view .LVU108
 188:Core/Src/main.c ****   {
 376              		.loc 1 188 7 is_stmt 0 view .LVU109
 377 0068 07A8     		add	r0, sp, #28
 378 006a FFF7FEFF 		bl	HAL_RCC_OscConfig
 379              	.LVL5:
ARM GAS  C:\Users\triet\AppData\Local\Temp\ccoOOlUu.s 			page 17


 188:Core/Src/main.c ****   {
 380              		.loc 1 188 6 view .LVU110
 381 006e B0B9     		cbnz	r0, .L24
 195:Core/Src/main.c ****   {
 382              		.loc 1 195 3 is_stmt 1 view .LVU111
 195:Core/Src/main.c ****   {
 383              		.loc 1 195 7 is_stmt 0 view .LVU112
 384 0070 FFF7FEFF 		bl	HAL_PWREx_EnableOverDrive
 385              	.LVL6:
 195:Core/Src/main.c ****   {
 386              		.loc 1 195 6 view .LVU113
 387 0074 A8B9     		cbnz	r0, .L25
 202:Core/Src/main.c ****                               |RCC_CLOCKTYPE_PCLK1|RCC_CLOCKTYPE_PCLK2;
 388              		.loc 1 202 3 is_stmt 1 view .LVU114
 202:Core/Src/main.c ****                               |RCC_CLOCKTYPE_PCLK1|RCC_CLOCKTYPE_PCLK2;
 389              		.loc 1 202 31 is_stmt 0 view .LVU115
 390 0076 0F23     		movs	r3, #15
 391 0078 0293     		str	r3, [sp, #8]
 204:Core/Src/main.c ****   RCC_ClkInitStruct.AHBCLKDivider = RCC_SYSCLK_DIV1;
 392              		.loc 1 204 3 is_stmt 1 view .LVU116
 204:Core/Src/main.c ****   RCC_ClkInitStruct.AHBCLKDivider = RCC_SYSCLK_DIV1;
 393              		.loc 1 204 34 is_stmt 0 view .LVU117
 394 007a 0223     		movs	r3, #2
 395 007c 0393     		str	r3, [sp, #12]
 205:Core/Src/main.c ****   RCC_ClkInitStruct.APB1CLKDivider = RCC_HCLK_DIV4;
 396              		.loc 1 205 3 is_stmt 1 view .LVU118
 205:Core/Src/main.c ****   RCC_ClkInitStruct.APB1CLKDivider = RCC_HCLK_DIV4;
 397              		.loc 1 205 35 is_stmt 0 view .LVU119
 398 007e 0023     		movs	r3, #0
 399 0080 0493     		str	r3, [sp, #16]
 206:Core/Src/main.c ****   RCC_ClkInitStruct.APB2CLKDivider = RCC_HCLK_DIV2;
 400              		.loc 1 206 3 is_stmt 1 view .LVU120
 206:Core/Src/main.c ****   RCC_ClkInitStruct.APB2CLKDivider = RCC_HCLK_DIV2;
 401              		.loc 1 206 36 is_stmt 0 view .LVU121
 402 0082 4FF4A053 		mov	r3, #5120
 403 0086 0593     		str	r3, [sp, #20]
 207:Core/Src/main.c **** 
 404              		.loc 1 207 3 is_stmt 1 view .LVU122
 207:Core/Src/main.c **** 
 405              		.loc 1 207 36 is_stmt 0 view .LVU123
 406 0088 4FF48053 		mov	r3, #4096
 407 008c 0693     		str	r3, [sp, #24]
 209:Core/Src/main.c ****   {
 408              		.loc 1 209 3 is_stmt 1 view .LVU124
 209:Core/Src/main.c ****   {
 409              		.loc 1 209 7 is_stmt 0 view .LVU125
 410 008e 0521     		movs	r1, #5
 411 0090 02A8     		add	r0, sp, #8
 412 0092 FFF7FEFF 		bl	HAL_RCC_ClockConfig
 413              	.LVL7:
 209:Core/Src/main.c ****   {
 414              		.loc 1 209 6 view .LVU126
 415 0096 30B9     		cbnz	r0, .L26
 213:Core/Src/main.c **** 
 416              		.loc 1 213 1 view .LVU127
 417 0098 15B0     		add	sp, sp, #84
 418              	.LCFI6:
ARM GAS  C:\Users\triet\AppData\Local\Temp\ccoOOlUu.s 			page 18


 419              		.cfi_remember_state
 420              		.cfi_def_cfa_offset 4
 421              		@ sp needed
 422 009a 5DF804FB 		ldr	pc, [sp], #4
 423              	.L24:
 424              	.LCFI7:
 425              		.cfi_restore_state
 190:Core/Src/main.c ****   }
 426              		.loc 1 190 5 is_stmt 1 view .LVU128
 427 009e FFF7FEFF 		bl	Error_Handler
 428              	.LVL8:
 429              	.L25:
 197:Core/Src/main.c ****   }
 430              		.loc 1 197 5 view .LVU129
 431 00a2 FFF7FEFF 		bl	Error_Handler
 432              	.LVL9:
 433              	.L26:
 211:Core/Src/main.c ****   }
 434              		.loc 1 211 5 view .LVU130
 435 00a6 FFF7FEFF 		bl	Error_Handler
 436              	.LVL10:
 437              	.L28:
 438 00aa 00BF     		.align	2
 439              	.L27:
 440 00ac 00380240 		.word	1073887232
 441 00b0 00700040 		.word	1073770496
 442              		.cfi_endproc
 443              	.LFE134:
 445              		.global	__aeabi_dadd
 446              		.global	__aeabi_ddiv
 447              		.global	__aeabi_dsub
 448              		.global	__aeabi_dmul
 449              		.global	__aeabi_f2d
 450              		.global	__aeabi_d2f
 451              		.section	.rodata.main.str1.4,"aMS",%progbits,1
 452              		.align	2
 453              	.LC0:
 454 0000 526F6C6C 		.ascii	"Roll: %.2f \000"
 454      3A20252E 
 454      32662000 
 455              		.align	2
 456              	.LC1:
 457 000c 50697463 		.ascii	"Pitch: %.2f \000"
 457      683A2025 
 457      2E326620 
 457      00
 458              		.section	.text.main,"ax",%progbits
 459              		.align	1
 460              		.global	main
 461              		.syntax unified
 462              		.thumb
 463              		.thumb_func
 465              	main:
 466              	.LFB133:
  75:Core/Src/main.c ****   /* USER CODE BEGIN 1 */
 467              		.loc 1 75 1 view -0
 468              		.cfi_startproc
ARM GAS  C:\Users\triet\AppData\Local\Temp\ccoOOlUu.s 			page 19


 469              		@ args = 0, pretend = 0, frame = 0
 470              		@ frame_needed = 0, uses_anonymous_args = 0
 471 0000 2DE9F84F 		push	{r3, r4, r5, r6, r7, r8, r9, r10, fp, lr}
 472              	.LCFI8:
 473              		.cfi_def_cfa_offset 40
 474              		.cfi_offset 3, -40
 475              		.cfi_offset 4, -36
 476              		.cfi_offset 5, -32
 477              		.cfi_offset 6, -28
 478              		.cfi_offset 7, -24
 479              		.cfi_offset 8, -20
 480              		.cfi_offset 9, -16
 481              		.cfi_offset 10, -12
 482              		.cfi_offset 11, -8
 483              		.cfi_offset 14, -4
 484 0004 2DED028B 		vpush.64	{d8}
 485              	.LCFI9:
 486              		.cfi_def_cfa_offset 48
 487              		.cfi_offset 80, -48
 488              		.cfi_offset 81, -44
  83:Core/Src/main.c **** 
 489              		.loc 1 83 3 view .LVU132
 490 0008 FFF7FEFF 		bl	HAL_Init
 491              	.LVL11:
  90:Core/Src/main.c **** 
 492              		.loc 1 90 3 view .LVU133
 493 000c FFF7FEFF 		bl	SystemClock_Config
 494              	.LVL12:
  97:Core/Src/main.c ****   MX_I2C1_Init();
 495              		.loc 1 97 3 view .LVU134
 496 0010 FFF7FEFF 		bl	MX_GPIO_Init
 497              	.LVL13:
  98:Core/Src/main.c ****   MX_USART2_UART_Init();
 498              		.loc 1 98 3 view .LVU135
 499 0014 FFF7FEFF 		bl	MX_I2C1_Init
 500              	.LVL14:
  99:Core/Src/main.c ****   /* USER CODE BEGIN 2 */
 501              		.loc 1 99 3 view .LVU136
 502 0018 FFF7FEFF 		bl	MX_USART2_UART_Init
 503              	.LVL15:
 101:Core/Src/main.c **** 
 504              		.loc 1 101 3 view .LVU137
 505 001c FFF7FEFF 		bl	MPU6050_Init
 506              	.LVL16:
 103:Core/Src/main.c ****   {
 507              		.loc 1 103 3 view .LVU138
 508              	.LBB11:
 103:Core/Src/main.c ****   {
 509              		.loc 1 103 7 view .LVU139
 103:Core/Src/main.c ****   {
 510              		.loc 1 103 11 is_stmt 0 view .LVU140
 511 0020 0025     		movs	r5, #0
 103:Core/Src/main.c ****   {
 512              		.loc 1 103 3 view .LVU141
 513 0022 1FE0     		b	.L30
 514              	.LVL17:
 515              	.L31:
ARM GAS  C:\Users\triet\AppData\Local\Temp\ccoOOlUu.s 			page 20


 105:Core/Src/main.c ****     MPU6050.Cali_Gx += MPU6050.Gx;
 516              		.loc 1 105 5 is_stmt 1 discriminator 3 view .LVU142
 517 0024 1E4C     		ldr	r4, .L37
 518 0026 2046     		mov	r0, r4
 519 0028 FFF7FEFF 		bl	MPU6050_Read
 520              	.LVL18:
 106:Core/Src/main.c ****     MPU6050.Cali_Gy += MPU6050.Gy;
 521              		.loc 1 106 5 discriminator 3 view .LVU143
 106:Core/Src/main.c ****     MPU6050.Cali_Gy += MPU6050.Gy;
 522              		.loc 1 106 21 is_stmt 0 discriminator 3 view .LVU144
 523 002c D4E90A23 		ldrd	r2, [r4, #40]
 524 0030 D4E90401 		ldrd	r0, [r4, #16]
 525 0034 FFF7FEFF 		bl	__aeabi_dadd
 526              	.LVL19:
 527 0038 C4E90401 		strd	r0, [r4, #16]
 107:Core/Src/main.c ****     MPU6050.Cali_Gz += MPU6050.Gz;
 528              		.loc 1 107 5 is_stmt 1 discriminator 3 view .LVU145
 107:Core/Src/main.c ****     MPU6050.Cali_Gz += MPU6050.Gz;
 529              		.loc 1 107 21 is_stmt 0 discriminator 3 view .LVU146
 530 003c D4E90C23 		ldrd	r2, [r4, #48]
 531 0040 D4E90601 		ldrd	r0, [r4, #24]
 532 0044 FFF7FEFF 		bl	__aeabi_dadd
 533              	.LVL20:
 534 0048 C4E90601 		strd	r0, [r4, #24]
 108:Core/Src/main.c ****     HAL_Delay(3);
 535              		.loc 1 108 5 is_stmt 1 discriminator 3 view .LVU147
 108:Core/Src/main.c ****     HAL_Delay(3);
 536              		.loc 1 108 21 is_stmt 0 discriminator 3 view .LVU148
 537 004c D4E90E23 		ldrd	r2, [r4, #56]
 538 0050 D4E90801 		ldrd	r0, [r4, #32]
 539 0054 FFF7FEFF 		bl	__aeabi_dadd
 540              	.LVL21:
 541 0058 C4E90801 		strd	r0, [r4, #32]
 109:Core/Src/main.c ****   }
 542              		.loc 1 109 5 is_stmt 1 discriminator 3 view .LVU149
 543 005c 0320     		movs	r0, #3
 544 005e FFF7FEFF 		bl	HAL_Delay
 545              	.LVL22:
 103:Core/Src/main.c ****   {
 546              		.loc 1 103 44 discriminator 3 view .LVU150
 103:Core/Src/main.c ****   {
 547              		.loc 1 103 53 is_stmt 0 discriminator 3 view .LVU151
 548 0062 0135     		adds	r5, r5, #1
 549              	.LVL23:
 550              	.L30:
 103:Core/Src/main.c ****   {
 551              		.loc 1 103 26 is_stmt 1 discriminator 1 view .LVU152
 103:Core/Src/main.c ****   {
 552              		.loc 1 103 3 is_stmt 0 discriminator 1 view .LVU153
 553 0064 B5F5FA6F 		cmp	r5, #2000
 554 0068 DCDB     		blt	.L31
 555              	.LBE11:
 111:Core/Src/main.c ****   MPU6050.Cali_Gy/=2000;
 556              		.loc 1 111 3 is_stmt 1 view .LVU154
 111:Core/Src/main.c ****   MPU6050.Cali_Gy/=2000;
 557              		.loc 1 111 18 is_stmt 0 view .LVU155
 558 006a 0D4C     		ldr	r4, .L37
ARM GAS  C:\Users\triet\AppData\Local\Temp\ccoOOlUu.s 			page 21


 559 006c 0022     		movs	r2, #0
 560 006e 0D4B     		ldr	r3, .L37+4
 561 0070 D4E90401 		ldrd	r0, [r4, #16]
 562 0074 FFF7FEFF 		bl	__aeabi_ddiv
 563              	.LVL24:
 564 0078 C4E90401 		strd	r0, [r4, #16]
 112:Core/Src/main.c ****   MPU6050.Cali_Gz/=2000;
 565              		.loc 1 112 3 is_stmt 1 view .LVU156
 112:Core/Src/main.c ****   MPU6050.Cali_Gz/=2000;
 566              		.loc 1 112 18 is_stmt 0 view .LVU157
 567 007c 0022     		movs	r2, #0
 568 007e 094B     		ldr	r3, .L37+4
 569 0080 D4E90601 		ldrd	r0, [r4, #24]
 570 0084 FFF7FEFF 		bl	__aeabi_ddiv
 571              	.LVL25:
 572 0088 C4E90601 		strd	r0, [r4, #24]
 113:Core/Src/main.c ****   /* USER CODE END 2 */
 573              		.loc 1 113 3 is_stmt 1 view .LVU158
 113:Core/Src/main.c ****   /* USER CODE END 2 */
 574              		.loc 1 113 18 is_stmt 0 view .LVU159
 575 008c 0022     		movs	r2, #0
 576 008e 054B     		ldr	r3, .L37+4
 577 0090 D4E90801 		ldrd	r0, [r4, #32]
 578 0094 FFF7FEFF 		bl	__aeabi_ddiv
 579              	.LVL26:
 580 0098 C4E90801 		strd	r0, [r4, #32]
 581 009c 98E0     		b	.L34
 582              	.L38:
 583 009e 00BF     		.align	2
 584              	.L37:
 585 00a0 00000000 		.word	.LANCHOR2
 586 00a4 00409F40 		.word	1084178432
 587              	.LVL27:
 588              	.L36:
 140:Core/Src/main.c ****       MPU6050.Pitch_Angle = MPU6050.Pitch_Angle *0.9996 - MPU6050.Pitch_Angle_Acc*0.0004;
 589              		.loc 1 140 7 is_stmt 1 view .LVU160
 140:Core/Src/main.c ****       MPU6050.Pitch_Angle = MPU6050.Pitch_Angle *0.9996 - MPU6050.Pitch_Angle_Acc*0.0004;
 590              		.loc 1 140 35 is_stmt 0 view .LVU161
 591 00a8 DAF85800 		ldr	r0, [r10, #88]	@ float
 592 00ac FFF7FEFF 		bl	__aeabi_f2d
 593              	.LVL28:
 140:Core/Src/main.c ****       MPU6050.Pitch_Angle = MPU6050.Pitch_Angle *0.9996 - MPU6050.Pitch_Angle_Acc*0.0004;
 594              		.loc 1 140 47 view .LVU162
 595 00b0 DEA3     		adr	r3, .L39+84
 596 00b2 D3E90023 		ldrd	r2, [r3]
 597 00b6 FFF7FEFF 		bl	__aeabi_dmul
 598              	.LVL29:
 599 00ba 0646     		mov	r6, r0
 600 00bc 0F46     		mov	r7, r1
 140:Core/Src/main.c ****       MPU6050.Pitch_Angle = MPU6050.Pitch_Angle *0.9996 - MPU6050.Pitch_Angle_Acc*0.0004;
 601              		.loc 1 140 64 view .LVU163
 602 00be DAF86400 		ldr	r0, [r10, #100]	@ float
 603 00c2 FFF7FEFF 		bl	__aeabi_f2d
 604              	.LVL30:
 140:Core/Src/main.c ****       MPU6050.Pitch_Angle = MPU6050.Pitch_Angle *0.9996 - MPU6050.Pitch_Angle_Acc*0.0004;
 605              		.loc 1 140 79 view .LVU164
 606 00c6 DBA3     		adr	r3, .L39+92
ARM GAS  C:\Users\triet\AppData\Local\Temp\ccoOOlUu.s 			page 22


 607 00c8 D3E90023 		ldrd	r2, [r3]
 608 00cc FFF7FEFF 		bl	__aeabi_dmul
 609              	.LVL31:
 610 00d0 0246     		mov	r2, r0
 611 00d2 0B46     		mov	r3, r1
 140:Core/Src/main.c ****       MPU6050.Pitch_Angle = MPU6050.Pitch_Angle *0.9996 - MPU6050.Pitch_Angle_Acc*0.0004;
 612              		.loc 1 140 55 view .LVU165
 613 00d4 3046     		mov	r0, r6
 614 00d6 3946     		mov	r1, r7
 615 00d8 FFF7FEFF 		bl	__aeabi_dsub
 616              	.LVL32:
 617 00dc FFF7FEFF 		bl	__aeabi_d2f
 618              	.LVL33:
 140:Core/Src/main.c ****       MPU6050.Pitch_Angle = MPU6050.Pitch_Angle *0.9996 - MPU6050.Pitch_Angle_Acc*0.0004;
 619              		.loc 1 140 26 view .LVU166
 620 00e0 CAF85800 		str	r0, [r10, #88]	@ float
 141:Core/Src/main.c ****     }
 621              		.loc 1 141 7 is_stmt 1 view .LVU167
 141:Core/Src/main.c ****     }
 622              		.loc 1 141 36 is_stmt 0 view .LVU168
 623 00e4 DAF85C00 		ldr	r0, [r10, #92]	@ float
 624 00e8 FFF7FEFF 		bl	__aeabi_f2d
 625              	.LVL34:
 141:Core/Src/main.c ****     }
 626              		.loc 1 141 49 view .LVU169
 627 00ec CFA3     		adr	r3, .L39+84
 628 00ee D3E90023 		ldrd	r2, [r3]
 629 00f2 FFF7FEFF 		bl	__aeabi_dmul
 630              	.LVL35:
 631 00f6 0646     		mov	r6, r0
 632 00f8 0F46     		mov	r7, r1
 141:Core/Src/main.c ****     }
 633              		.loc 1 141 66 view .LVU170
 634 00fa 2046     		mov	r0, r4	@ float
 635 00fc FFF7FEFF 		bl	__aeabi_f2d
 636              	.LVL36:
 141:Core/Src/main.c ****     }
 637              		.loc 1 141 82 view .LVU171
 638 0100 CCA3     		adr	r3, .L39+92
 639 0102 D3E90023 		ldrd	r2, [r3]
 640 0106 FFF7FEFF 		bl	__aeabi_dmul
 641              	.LVL37:
 642 010a 0246     		mov	r2, r0
 643 010c 0B46     		mov	r3, r1
 141:Core/Src/main.c ****     }
 644              		.loc 1 141 57 view .LVU172
 645 010e 3046     		mov	r0, r6
 646 0110 3946     		mov	r1, r7
 647 0112 FFF7FEFF 		bl	__aeabi_dsub
 648              	.LVL38:
 649 0116 FFF7FEFF 		bl	__aeabi_d2f
 650              	.LVL39:
 141:Core/Src/main.c ****     }
 651              		.loc 1 141 27 view .LVU173
 652 011a CAF85C00 		str	r0, [r10, #92]	@ float
 653              	.L33:
 150:Core/Src/main.c ****     MPU6050.Pitch_Output = MPU6050.Pitch_Output* 0.9 + MPU6050.Pitch_Angle*0.1 ;
ARM GAS  C:\Users\triet\AppData\Local\Temp\ccoOOlUu.s 			page 23


 654              		.loc 1 150 5 is_stmt 1 view .LVU174
 150:Core/Src/main.c ****     MPU6050.Pitch_Output = MPU6050.Pitch_Output* 0.9 + MPU6050.Pitch_Angle*0.1 ;
 655              		.loc 1 150 35 is_stmt 0 view .LVU175
 656 011e BC4C     		ldr	r4, .L39+56
 657 0120 E06E     		ldr	r0, [r4, #108]	@ float
 658 0122 FFF7FEFF 		bl	__aeabi_f2d
 659              	.LVL40:
 150:Core/Src/main.c ****     MPU6050.Pitch_Output = MPU6050.Pitch_Output* 0.9 + MPU6050.Pitch_Angle*0.1 ;
 660              		.loc 1 150 47 view .LVU176
 661 0126 ACA3     		adr	r3, .L39
 662 0128 D3E90023 		ldrd	r2, [r3]
 663 012c FFF7FEFF 		bl	__aeabi_dmul
 664              	.LVL41:
 665 0130 0646     		mov	r6, r0
 666 0132 0F46     		mov	r7, r1
 150:Core/Src/main.c ****     MPU6050.Pitch_Output = MPU6050.Pitch_Output* 0.9 + MPU6050.Pitch_Angle*0.1 ;
 667              		.loc 1 150 62 view .LVU177
 668 0134 A06D     		ldr	r0, [r4, #88]	@ float
 669 0136 FFF7FEFF 		bl	__aeabi_f2d
 670              	.LVL42:
 150:Core/Src/main.c ****     MPU6050.Pitch_Output = MPU6050.Pitch_Output* 0.9 + MPU6050.Pitch_Angle*0.1 ;
 671              		.loc 1 150 73 view .LVU178
 672 013a A9A3     		adr	r3, .L39+8
 673 013c D3E90023 		ldrd	r2, [r3]
 674 0140 FFF7FEFF 		bl	__aeabi_dmul
 675              	.LVL43:
 676 0144 0246     		mov	r2, r0
 677 0146 0B46     		mov	r3, r1
 150:Core/Src/main.c ****     MPU6050.Pitch_Output = MPU6050.Pitch_Output* 0.9 + MPU6050.Pitch_Angle*0.1 ;
 678              		.loc 1 150 53 view .LVU179
 679 0148 3046     		mov	r0, r6
 680 014a 3946     		mov	r1, r7
 681 014c FFF7FEFF 		bl	__aeabi_dadd
 682              	.LVL44:
 683 0150 FFF7FEFF 		bl	__aeabi_d2f
 684              	.LVL45:
 685 0154 0546     		mov	r5, r0	@ float
 150:Core/Src/main.c ****     MPU6050.Pitch_Output = MPU6050.Pitch_Output* 0.9 + MPU6050.Pitch_Angle*0.1 ;
 686              		.loc 1 150 25 view .LVU180
 687 0156 E066     		str	r0, [r4, #108]	@ float
 151:Core/Src/main.c **** 
 688              		.loc 1 151 5 is_stmt 1 view .LVU181
 151:Core/Src/main.c **** 
 689              		.loc 1 151 35 is_stmt 0 view .LVU182
 690 0158 206F     		ldr	r0, [r4, #112]	@ float
 691 015a FFF7FEFF 		bl	__aeabi_f2d
 692              	.LVL46:
 151:Core/Src/main.c **** 
 693              		.loc 1 151 48 view .LVU183
 694 015e 9EA3     		adr	r3, .L39
 695 0160 D3E90023 		ldrd	r2, [r3]
 696 0164 FFF7FEFF 		bl	__aeabi_dmul
 697              	.LVL47:
 698 0168 0646     		mov	r6, r0
 699 016a 0F46     		mov	r7, r1
 151:Core/Src/main.c **** 
 700              		.loc 1 151 63 view .LVU184
ARM GAS  C:\Users\triet\AppData\Local\Temp\ccoOOlUu.s 			page 24


 701 016c E06D     		ldr	r0, [r4, #92]	@ float
 702 016e FFF7FEFF 		bl	__aeabi_f2d
 703              	.LVL48:
 151:Core/Src/main.c **** 
 704              		.loc 1 151 75 view .LVU185
 705 0172 9BA3     		adr	r3, .L39+8
 706 0174 D3E90023 		ldrd	r2, [r3]
 707 0178 FFF7FEFF 		bl	__aeabi_dmul
 708              	.LVL49:
 709 017c 0246     		mov	r2, r0
 710 017e 0B46     		mov	r3, r1
 151:Core/Src/main.c **** 
 711              		.loc 1 151 54 view .LVU186
 712 0180 3046     		mov	r0, r6
 713 0182 3946     		mov	r1, r7
 714 0184 FFF7FEFF 		bl	__aeabi_dadd
 715              	.LVL50:
 716 0188 FFF7FEFF 		bl	__aeabi_d2f
 717              	.LVL51:
 151:Core/Src/main.c **** 
 718              		.loc 1 151 26 view .LVU187
 719 018c 2067     		str	r0, [r4, #112]	@ float
 153:Core/Src/main.c ****     sprintf(Pitch_Data,"Pitch: %.2f ",MPU6050.Pitch_Output);
 720              		.loc 1 153 5 is_stmt 1 view .LVU188
 721 018e 2846     		mov	r0, r5	@ float
 722 0190 FFF7FEFF 		bl	__aeabi_f2d
 723              	.LVL52:
 724 0194 0246     		mov	r2, r0
 725 0196 0B46     		mov	r3, r1
 726 0198 9E4E     		ldr	r6, .L39+60
 727 019a 9F49     		ldr	r1, .L39+64
 728 019c 3046     		mov	r0, r6
 729 019e FFF7FEFF 		bl	sprintf
 730              	.LVL53:
 154:Core/Src/main.c **** 
 731              		.loc 1 154 5 view .LVU189
 732 01a2 206F     		ldr	r0, [r4, #112]	@ float
 733 01a4 FFF7FEFF 		bl	__aeabi_f2d
 734              	.LVL54:
 735 01a8 0246     		mov	r2, r0
 736 01aa 0B46     		mov	r3, r1
 737 01ac 9B4D     		ldr	r5, .L39+68
 738 01ae 9C49     		ldr	r1, .L39+72
 739 01b0 2846     		mov	r0, r5
 740 01b2 FFF7FEFF 		bl	sprintf
 741              	.LVL55:
 156:Core/Src/main.c ****     HAL_UART_Transmit(&huart2, Pitch_Data, sizeof(Pitch_Data), 100);
 742              		.loc 1 156 5 view .LVU190
 743 01b6 9B4C     		ldr	r4, .L39+76
 744 01b8 6423     		movs	r3, #100
 745 01ba 1E22     		movs	r2, #30
 746 01bc 3146     		mov	r1, r6
 747 01be 2046     		mov	r0, r4
 748 01c0 FFF7FEFF 		bl	HAL_UART_Transmit
 749              	.LVL56:
 157:Core/Src/main.c ****   }
 750              		.loc 1 157 5 view .LVU191
ARM GAS  C:\Users\triet\AppData\Local\Temp\ccoOOlUu.s 			page 25


 751 01c4 6423     		movs	r3, #100
 752 01c6 1E22     		movs	r2, #30
 753 01c8 2946     		mov	r1, r5
 754 01ca 2046     		mov	r0, r4
 755 01cc FFF7FEFF 		bl	HAL_UART_Transmit
 756              	.LVL57:
 118:Core/Src/main.c ****   {
 757              		.loc 1 118 9 view .LVU192
 758              	.L34:
 118:Core/Src/main.c ****   {
 759              		.loc 1 118 3 view .LVU193
 123:Core/Src/main.c ****     MPU6050.Gx -= MPU6050.Cali_Gx;
 760              		.loc 1 123 5 view .LVU194
 761 01d0 DFF83CA2 		ldr	r10, .L39+56
 762 01d4 5046     		mov	r0, r10
 763 01d6 FFF7FEFF 		bl	MPU6050_Read
 764              	.LVL58:
 124:Core/Src/main.c ****     MPU6050.Gy -= MPU6050.Cali_Gy;
 765              		.loc 1 124 5 view .LVU195
 124:Core/Src/main.c ****     MPU6050.Gy -= MPU6050.Cali_Gy;
 766              		.loc 1 124 16 is_stmt 0 view .LVU196
 767 01da DAE90423 		ldrd	r2, [r10, #16]
 768 01de DAE90A01 		ldrd	r0, [r10, #40]
 769 01e2 FFF7FEFF 		bl	__aeabi_dsub
 770              	.LVL59:
 771 01e6 0446     		mov	r4, r0
 772 01e8 0D46     		mov	r5, r1
 773 01ea CAE90A45 		strd	r4, [r10, #40]
 125:Core/Src/main.c ****     MPU6050.Gz -= MPU6050.Cali_Gz;
 774              		.loc 1 125 5 is_stmt 1 view .LVU197
 125:Core/Src/main.c ****     MPU6050.Gz -= MPU6050.Cali_Gz;
 775              		.loc 1 125 16 is_stmt 0 view .LVU198
 776 01ee DAE90623 		ldrd	r2, [r10, #24]
 777 01f2 DAE90C01 		ldrd	r0, [r10, #48]
 778 01f6 FFF7FEFF 		bl	__aeabi_dsub
 779              	.LVL60:
 780 01fa 8046     		mov	r8, r0
 781 01fc 8946     		mov	r9, r1
 782 01fe CAE90C89 		strd	r8, [r10, #48]
 126:Core/Src/main.c **** 
 783              		.loc 1 126 5 is_stmt 1 view .LVU199
 126:Core/Src/main.c **** 
 784              		.loc 1 126 16 is_stmt 0 view .LVU200
 785 0202 DAE90823 		ldrd	r2, [r10, #32]
 786 0206 DAE90E01 		ldrd	r0, [r10, #56]
 787 020a FFF7FEFF 		bl	__aeabi_dsub
 788              	.LVL61:
 789 020e 0646     		mov	r6, r0
 790 0210 0F46     		mov	r7, r1
 791 0212 CAE90E67 		strd	r6, [r10, #56]
 128:Core/Src/main.c ****     MPU6050.Roll_Angle += MPU6050.Gy * 0.0000611; 
 792              		.loc 1 128 5 is_stmt 1 view .LVU201
 128:Core/Src/main.c ****     MPU6050.Roll_Angle += MPU6050.Gy * 0.0000611; 
 793              		.loc 1 128 39 is_stmt 0 view .LVU202
 794 0216 74A3     		adr	r3, .L39+16
 795 0218 D3E90023 		ldrd	r2, [r3]
 796 021c 2046     		mov	r0, r4
ARM GAS  C:\Users\triet\AppData\Local\Temp\ccoOOlUu.s 			page 26


 797 021e 2946     		mov	r1, r5
 798 0220 FFF7FEFF 		bl	__aeabi_dmul
 799              	.LVL62:
 800 0224 0446     		mov	r4, r0
 801 0226 0D46     		mov	r5, r1
 128:Core/Src/main.c ****     MPU6050.Roll_Angle += MPU6050.Gy * 0.0000611; 
 802              		.loc 1 128 25 view .LVU203
 803 0228 DAF85C00 		ldr	r0, [r10, #92]	@ float
 804 022c FFF7FEFF 		bl	__aeabi_f2d
 805              	.LVL63:
 806 0230 2246     		mov	r2, r4
 807 0232 2B46     		mov	r3, r5
 808 0234 FFF7FEFF 		bl	__aeabi_dadd
 809              	.LVL64:
 810 0238 FFF7FEFF 		bl	__aeabi_d2f
 811              	.LVL65:
 812 023c 8346     		mov	fp, r0	@ float
 813 023e CAF85C00 		str	r0, [r10, #92]	@ float
 129:Core/Src/main.c **** 
 814              		.loc 1 129 5 is_stmt 1 view .LVU204
 129:Core/Src/main.c **** 
 815              		.loc 1 129 38 is_stmt 0 view .LVU205
 816 0242 69A3     		adr	r3, .L39+16
 817 0244 D3E90023 		ldrd	r2, [r3]
 818 0248 4046     		mov	r0, r8
 819 024a 4946     		mov	r1, r9
 820 024c FFF7FEFF 		bl	__aeabi_dmul
 821              	.LVL66:
 822 0250 0446     		mov	r4, r0
 823 0252 0D46     		mov	r5, r1
 129:Core/Src/main.c **** 
 824              		.loc 1 129 24 view .LVU206
 825 0254 DAF85800 		ldr	r0, [r10, #88]	@ float
 826 0258 FFF7FEFF 		bl	__aeabi_f2d
 827              	.LVL67:
 828 025c 2246     		mov	r2, r4
 829 025e 2B46     		mov	r3, r5
 830 0260 FFF7FEFF 		bl	__aeabi_dadd
 831              	.LVL68:
 832 0264 FFF7FEFF 		bl	__aeabi_d2f
 833              	.LVL69:
 834 0268 CAF85800 		str	r0, [r10, #88]	@ float
 131:Core/Src/main.c ****     MPU6050.Roll_Angle-= MPU6050.Pitch_Angle*sin(MPU6050.Gz*0.000001066);
 835              		.loc 1 131 5 is_stmt 1 view .LVU207
 131:Core/Src/main.c ****     MPU6050.Roll_Angle-= MPU6050.Pitch_Angle*sin(MPU6050.Gz*0.000001066);
 836              		.loc 1 131 34 is_stmt 0 view .LVU208
 837 026c FFF7FEFF 		bl	__aeabi_f2d
 838              	.LVL70:
 839 0270 0446     		mov	r4, r0
 840 0272 0D46     		mov	r5, r1
 131:Core/Src/main.c ****     MPU6050.Roll_Angle-= MPU6050.Pitch_Angle*sin(MPU6050.Gz*0.000001066);
 841              		.loc 1 131 46 view .LVU209
 842 0274 5EA3     		adr	r3, .L39+24
 843 0276 D3E90023 		ldrd	r2, [r3]
 844 027a 3046     		mov	r0, r6
 845 027c 3946     		mov	r1, r7
 846 027e FFF7FEFF 		bl	__aeabi_dmul
ARM GAS  C:\Users\triet\AppData\Local\Temp\ccoOOlUu.s 			page 27


 847              	.LVL71:
 848 0282 41EC100B 		vmov	d0, r0, r1
 849 0286 FFF7FEFF 		bl	sin
 850              	.LVL72:
 851 028a 57EC106B 		vmov	r6, r7, d0
 131:Core/Src/main.c ****     MPU6050.Roll_Angle-= MPU6050.Pitch_Angle*sin(MPU6050.Gz*0.000001066);
 852              		.loc 1 131 45 view .LVU210
 853 028e 10EE102A 		vmov	r2, s0	@ int
 854 0292 3B46     		mov	r3, r7
 855 0294 2046     		mov	r0, r4
 856 0296 2946     		mov	r1, r5
 857 0298 FFF7FEFF 		bl	__aeabi_dmul
 858              	.LVL73:
 859 029c 8046     		mov	r8, r0
 860 029e 8946     		mov	r9, r1
 131:Core/Src/main.c ****     MPU6050.Roll_Angle-= MPU6050.Pitch_Angle*sin(MPU6050.Gz*0.000001066);
 861              		.loc 1 131 24 view .LVU211
 862 02a0 5846     		mov	r0, fp	@ float
 863 02a2 FFF7FEFF 		bl	__aeabi_f2d
 864              	.LVL74:
 865 02a6 4246     		mov	r2, r8
 866 02a8 4B46     		mov	r3, r9
 867 02aa FFF7FEFF 		bl	__aeabi_dadd
 868              	.LVL75:
 869 02ae FFF7FEFF 		bl	__aeabi_d2f
 870              	.LVL76:
 871 02b2 CAF85C00 		str	r0, [r10, #92]	@ float
 132:Core/Src/main.c **** 
 872              		.loc 1 132 5 is_stmt 1 view .LVU212
 132:Core/Src/main.c **** 
 873              		.loc 1 132 33 is_stmt 0 view .LVU213
 874 02b6 FFF7FEFF 		bl	__aeabi_f2d
 875              	.LVL77:
 876 02ba 0246     		mov	r2, r0
 877 02bc 0B46     		mov	r3, r1
 132:Core/Src/main.c **** 
 878              		.loc 1 132 45 view .LVU214
 879 02be 3046     		mov	r0, r6
 880 02c0 3946     		mov	r1, r7
 881 02c2 FFF7FEFF 		bl	__aeabi_dmul
 882              	.LVL78:
 883 02c6 0246     		mov	r2, r0
 884 02c8 0B46     		mov	r3, r1
 132:Core/Src/main.c **** 
 885              		.loc 1 132 23 view .LVU215
 886 02ca 2046     		mov	r0, r4
 887 02cc 2946     		mov	r1, r5
 888 02ce FFF7FEFF 		bl	__aeabi_dsub
 889              	.LVL79:
 890 02d2 FFF7FEFF 		bl	__aeabi_d2f
 891              	.LVL80:
 892 02d6 CAF85800 		str	r0, [r10, #88]	@ float
 134:Core/Src/main.c ****     MPU6050.Roll_Angle_Acc = asin((float)MPU6050.Ax/MPU6050.Total_Acc_Vector) * 57.296;
 893              		.loc 1 134 5 is_stmt 1 view .LVU216
 134:Core/Src/main.c ****     MPU6050.Roll_Angle_Acc = asin((float)MPU6050.Ax/MPU6050.Total_Acc_Vector) * 57.296;
 894              		.loc 1 134 37 is_stmt 0 view .LVU217
 895 02da 9FED478B 		vldr.64	d8, .L39+32
ARM GAS  C:\Users\triet\AppData\Local\Temp\ccoOOlUu.s 			page 28


 896 02de B0EE481A 		vmov.f32	s2, s16
 897 02e2 F0EE681A 		vmov.f32	s3, s17
 898 02e6 9AED100B 		vldr.64	d0, [r10, #64]
 899 02ea FFF7FEFF 		bl	pow
 900              	.LVL81:
 901 02ee 55EC104B 		vmov	r4, r5, d0
 134:Core/Src/main.c ****     MPU6050.Roll_Angle_Acc = asin((float)MPU6050.Ax/MPU6050.Total_Acc_Vector) * 57.296;
 902              		.loc 1 134 57 view .LVU218
 903 02f2 B0EE481A 		vmov.f32	s2, s16
 904 02f6 F0EE681A 		vmov.f32	s3, s17
 905 02fa 9AED120B 		vldr.64	d0, [r10, #72]
 906 02fe FFF7FEFF 		bl	pow
 907              	.LVL82:
 908 0302 53EC102B 		vmov	r2, r3, d0
 134:Core/Src/main.c ****     MPU6050.Roll_Angle_Acc = asin((float)MPU6050.Ax/MPU6050.Total_Acc_Vector) * 57.296;
 909              		.loc 1 134 55 view .LVU219
 910 0306 2046     		mov	r0, r4
 911 0308 2946     		mov	r1, r5
 912 030a FFF7FEFF 		bl	__aeabi_dadd
 913              	.LVL83:
 914 030e 0446     		mov	r4, r0
 915 0310 0D46     		mov	r5, r1
 134:Core/Src/main.c ****     MPU6050.Roll_Angle_Acc = asin((float)MPU6050.Ax/MPU6050.Total_Acc_Vector) * 57.296;
 916              		.loc 1 134 77 view .LVU220
 917 0312 B0EE481A 		vmov.f32	s2, s16
 918 0316 F0EE681A 		vmov.f32	s3, s17
 919 031a 9AED140B 		vldr.64	d0, [r10, #80]
 920 031e FFF7FEFF 		bl	pow
 921              	.LVL84:
 922 0322 53EC102B 		vmov	r2, r3, d0
 134:Core/Src/main.c ****     MPU6050.Roll_Angle_Acc = asin((float)MPU6050.Ax/MPU6050.Total_Acc_Vector) * 57.296;
 923              		.loc 1 134 32 view .LVU221
 924 0326 2046     		mov	r0, r4
 925 0328 2946     		mov	r1, r5
 926 032a FFF7FEFF 		bl	__aeabi_dadd
 927              	.LVL85:
 928 032e 41EC100B 		vmov	d0, r0, r1
 929 0332 FFF7FEFF 		bl	sqrt
 930              	.LVL86:
 931 0336 51EC100B 		vmov	r0, r1, d0
 932 033a FFF7FEFF 		bl	__aeabi_d2f
 933              	.LVL87:
 934 033e 08EE100A 		vmov	s16, r0
 134:Core/Src/main.c ****     MPU6050.Roll_Angle_Acc = asin((float)MPU6050.Ax/MPU6050.Total_Acc_Vector) * 57.296;
 935              		.loc 1 134 30 view .LVU222
 936 0342 CAF86000 		str	r0, [r10, #96]	@ float
 135:Core/Src/main.c ****     MPU6050.Pitch_Angle_Acc = asin((float)MPU6050.Ay/MPU6050.Total_Acc_Vector) * -57.296;
 937              		.loc 1 135 5 is_stmt 1 view .LVU223
 135:Core/Src/main.c ****     MPU6050.Pitch_Angle_Acc = asin((float)MPU6050.Ay/MPU6050.Total_Acc_Vector) * -57.296;
 938              		.loc 1 135 35 is_stmt 0 view .LVU224
 939 0346 DAE91001 		ldrd	r0, [r10, #64]
 940 034a FFF7FEFF 		bl	__aeabi_d2f
 941              	.LVL88:
 942 034e 07EE900A 		vmov	s15, r0
 135:Core/Src/main.c ****     MPU6050.Pitch_Angle_Acc = asin((float)MPU6050.Ay/MPU6050.Total_Acc_Vector) * -57.296;
 943              		.loc 1 135 30 view .LVU225
 944 0352 C7EE887A 		vdiv.f32	s15, s15, s16
ARM GAS  C:\Users\triet\AppData\Local\Temp\ccoOOlUu.s 			page 29


 945 0356 17EE900A 		vmov	r0, s15
 946 035a FFF7FEFF 		bl	__aeabi_f2d
 947              	.LVL89:
 948 035e 41EC100B 		vmov	d0, r0, r1
 949 0362 FFF7FEFF 		bl	asin
 950              	.LVL90:
 951 0366 51EC100B 		vmov	r0, r1, d0
 135:Core/Src/main.c ****     MPU6050.Pitch_Angle_Acc = asin((float)MPU6050.Ay/MPU6050.Total_Acc_Vector) * -57.296;
 952              		.loc 1 135 79 view .LVU226
 953 036a 25A3     		adr	r3, .L39+40
 954 036c D3E90023 		ldrd	r2, [r3]
 955 0370 FFF7FEFF 		bl	__aeabi_dmul
 956              	.LVL91:
 957 0374 FFF7FEFF 		bl	__aeabi_d2f
 958              	.LVL92:
 135:Core/Src/main.c ****     MPU6050.Pitch_Angle_Acc = asin((float)MPU6050.Ay/MPU6050.Total_Acc_Vector) * -57.296;
 959              		.loc 1 135 28 view .LVU227
 960 0378 CAF86400 		str	r0, [r10, #100]	@ float
 136:Core/Src/main.c **** 
 961              		.loc 1 136 5 is_stmt 1 view .LVU228
 136:Core/Src/main.c **** 
 962              		.loc 1 136 36 is_stmt 0 view .LVU229
 963 037c DAE91201 		ldrd	r0, [r10, #72]
 964 0380 FFF7FEFF 		bl	__aeabi_d2f
 965              	.LVL93:
 966 0384 07EE100A 		vmov	s14, r0
 136:Core/Src/main.c **** 
 967              		.loc 1 136 61 view .LVU230
 968 0388 DAED187A 		vldr.32	s15, [r10, #96]
 136:Core/Src/main.c **** 
 969              		.loc 1 136 31 view .LVU231
 970 038c C7EE277A 		vdiv.f32	s15, s14, s15
 971 0390 17EE900A 		vmov	r0, s15
 972 0394 FFF7FEFF 		bl	__aeabi_f2d
 973              	.LVL94:
 974 0398 41EC100B 		vmov	d0, r0, r1
 975 039c FFF7FEFF 		bl	asin
 976              	.LVL95:
 977 03a0 51EC100B 		vmov	r0, r1, d0
 136:Core/Src/main.c **** 
 978              		.loc 1 136 80 view .LVU232
 979 03a4 18A3     		adr	r3, .L39+48
 980 03a6 D3E90023 		ldrd	r2, [r3]
 981 03aa FFF7FEFF 		bl	__aeabi_dmul
 982              	.LVL96:
 983 03ae FFF7FEFF 		bl	__aeabi_d2f
 984              	.LVL97:
 985 03b2 0446     		mov	r4, r0	@ float
 136:Core/Src/main.c **** 
 986              		.loc 1 136 29 view .LVU233
 987 03b4 CAF86800 		str	r0, [r10, #104]	@ float
 138:Core/Src/main.c ****     {
 988              		.loc 1 138 5 is_stmt 1 view .LVU234
 138:Core/Src/main.c ****     {
 989              		.loc 1 138 8 is_stmt 0 view .LVU235
 990 03b8 1B4B     		ldr	r3, .L39+80
 991 03ba 1B68     		ldr	r3, [r3]
ARM GAS  C:\Users\triet\AppData\Local\Temp\ccoOOlUu.s 			page 30


 138:Core/Src/main.c ****     {
 992              		.loc 1 138 7 view .LVU236
 993 03bc 002B     		cmp	r3, #0
 994 03be 7FF473AE 		bne	.L36
 145:Core/Src/main.c ****       MPU6050.Pitch_Angle = MPU6050.Pitch_Angle_Acc;
 995              		.loc 1 145 7 is_stmt 1 view .LVU237
 145:Core/Src/main.c ****       MPU6050.Pitch_Angle = MPU6050.Pitch_Angle_Acc;
 996              		.loc 1 145 35 is_stmt 0 view .LVU238
 997 03c2 134B     		ldr	r3, .L39+56
 998 03c4 5A6E     		ldr	r2, [r3, #100]	@ float
 145:Core/Src/main.c ****       MPU6050.Pitch_Angle = MPU6050.Pitch_Angle_Acc;
 999              		.loc 1 145 26 view .LVU239
 1000 03c6 9A65     		str	r2, [r3, #88]	@ float
 146:Core/Src/main.c ****       set_gyro_angles = 1;
 1001              		.loc 1 146 7 is_stmt 1 view .LVU240
 146:Core/Src/main.c ****       set_gyro_angles = 1;
 1002              		.loc 1 146 27 is_stmt 0 view .LVU241
 1003 03c8 D865     		str	r0, [r3, #92]	@ float
 147:Core/Src/main.c ****     }
 1004              		.loc 1 147 7 is_stmt 1 view .LVU242
 147:Core/Src/main.c ****     }
 1005              		.loc 1 147 23 is_stmt 0 view .LVU243
 1006 03ca 174B     		ldr	r3, .L39+80
 1007 03cc 0122     		movs	r2, #1
 1008 03ce 1A60     		str	r2, [r3]
 1009 03d0 A5E6     		b	.L33
 1010              	.L40:
 1011 03d2 00BFAFF3 		.align	3
 1011      0080
 1012              	.L39:
 1013 03d8 CDCCCCCC 		.word	-858993459
 1014 03dc CCCCEC3F 		.word	1072483532
 1015 03e0 9A999999 		.word	-1717986918
 1016 03e4 9999B93F 		.word	1069128089
 1017 03e8 9615D401 		.word	30676374
 1018 03ec 5A04103F 		.word	1058014298
 1019 03f0 626E2C65 		.word	1697410658
 1020 03f4 6FE2B13E 		.word	1051845231
 1021 03f8 00000000 		.word	0
 1022 03fc 00000040 		.word	1073741824
 1023 0400 D9CEF753 		.word	1408749273
 1024 0404 E3A54C40 		.word	1078765027
 1025 0408 D9CEF753 		.word	1408749273
 1026 040c E3A54CC0 		.word	-1068718621
 1027 0410 00000000 		.word	.LANCHOR2
 1028 0414 00000000 		.word	.LANCHOR4
 1029 0418 00000000 		.word	.LC0
 1030 041c 00000000 		.word	.LANCHOR5
 1031 0420 0C000000 		.word	.LC1
 1032 0424 00000000 		.word	.LANCHOR1
 1033 0428 00000000 		.word	.LANCHOR3
 1034 042c 789CA223 		.word	597859448
 1035 0430 B9FCEF3F 		.word	1072692409
 1036 0434 2D431CEB 		.word	-350469331
 1037 0438 E2363A3F 		.word	1060779746
 1038              		.cfi_endproc
 1039              	.LFE133:
ARM GAS  C:\Users\triet\AppData\Local\Temp\ccoOOlUu.s 			page 31


 1041              		.global	set_gyro_angles
 1042              		.global	Yaw_Data
 1043              		.global	Pitch_Data
 1044              		.global	Roll_Data
 1045              		.global	MPU6050
 1046              		.global	huart2
 1047              		.global	hi2c1
 1048              		.section	.bss.MPU6050,"aw",%nobits
 1049              		.align	3
 1050              		.set	.LANCHOR2,. + 0
 1053              	MPU6050:
 1054 0000 00000000 		.space	120
 1054      00000000 
 1054      00000000 
 1054      00000000 
 1054      00000000 
 1055              		.section	.bss.Pitch_Data,"aw",%nobits
 1056              		.align	2
 1057              		.set	.LANCHOR5,. + 0
 1060              	Pitch_Data:
 1061 0000 00000000 		.space	30
 1061      00000000 
 1061      00000000 
 1061      00000000 
 1061      00000000 
 1062              		.section	.bss.Roll_Data,"aw",%nobits
 1063              		.align	2
 1064              		.set	.LANCHOR4,. + 0
 1067              	Roll_Data:
 1068 0000 00000000 		.space	30
 1068      00000000 
 1068      00000000 
 1068      00000000 
 1068      00000000 
 1069              		.section	.bss.Yaw_Data,"aw",%nobits
 1070              		.align	2
 1073              	Yaw_Data:
 1074 0000 00000000 		.space	30
 1074      00000000 
 1074      00000000 
 1074      00000000 
 1074      00000000 
 1075              		.section	.bss.hi2c1,"aw",%nobits
 1076              		.align	2
 1077              		.set	.LANCHOR0,. + 0
 1080              	hi2c1:
 1081 0000 00000000 		.space	84
 1081      00000000 
 1081      00000000 
 1081      00000000 
 1081      00000000 
 1082              		.section	.bss.huart2,"aw",%nobits
 1083              		.align	2
 1084              		.set	.LANCHOR1,. + 0
 1087              	huart2:
 1088 0000 00000000 		.space	68
 1088      00000000 
ARM GAS  C:\Users\triet\AppData\Local\Temp\ccoOOlUu.s 			page 32


 1088      00000000 
 1088      00000000 
 1088      00000000 
 1089              		.section	.bss.set_gyro_angles,"aw",%nobits
 1090              		.align	2
 1091              		.set	.LANCHOR3,. + 0
 1094              	set_gyro_angles:
 1095 0000 00000000 		.space	4
 1096              		.text
 1097              	.Letext0:
 1098              		.file 3 "c:\\program files (x86)\\gnu arm embedded toolchain\\10 2021.10\\arm-none-eabi\\include\\
 1099              		.file 4 "c:\\program files (x86)\\gnu arm embedded toolchain\\10 2021.10\\arm-none-eabi\\include\\
 1100              		.file 5 "Drivers/CMSIS/Device/ST/STM32F4xx/Include/stm32f446xx.h"
 1101              		.file 6 "Drivers/STM32F4xx_HAL_Driver/Inc/stm32f4xx_hal_def.h"
 1102              		.file 7 "Drivers/STM32F4xx_HAL_Driver/Inc/stm32f4xx_hal_rcc_ex.h"
 1103              		.file 8 "Drivers/STM32F4xx_HAL_Driver/Inc/stm32f4xx_hal_rcc.h"
 1104              		.file 9 "Drivers/STM32F4xx_HAL_Driver/Inc/stm32f4xx_hal_dma.h"
 1105              		.file 10 "Drivers/STM32F4xx_HAL_Driver/Inc/stm32f4xx_hal_i2c.h"
 1106              		.file 11 "Drivers/STM32F4xx_HAL_Driver/Inc/stm32f4xx_hal_uart.h"
 1107              		.file 12 "Core/Inc/mpu6050.h"
 1108              		.file 13 "Drivers/STM32F4xx_HAL_Driver/Inc/stm32f4xx_hal_pwr_ex.h"
 1109              		.file 14 "Drivers/STM32F4xx_HAL_Driver/Inc/stm32f4xx_hal.h"
 1110              		.file 15 "c:\\program files (x86)\\gnu arm embedded toolchain\\10 2021.10\\arm-none-eabi\\include\
 1111              		.file 16 "c:\\program files (x86)\\gnu arm embedded toolchain\\10 2021.10\\arm-none-eabi\\include\
 1112              		.file 17 "<built-in>"
ARM GAS  C:\Users\triet\AppData\Local\Temp\ccoOOlUu.s 			page 33


DEFINED SYMBOLS
                            *ABS*:00000000 main.c
C:\Users\triet\AppData\Local\Temp\ccoOOlUu.s:20     .text.MX_GPIO_Init:00000000 $t
C:\Users\triet\AppData\Local\Temp\ccoOOlUu.s:25     .text.MX_GPIO_Init:00000000 MX_GPIO_Init
C:\Users\triet\AppData\Local\Temp\ccoOOlUu.s:95     .text.MX_GPIO_Init:00000048 $d
C:\Users\triet\AppData\Local\Temp\ccoOOlUu.s:100    .text.Error_Handler:00000000 $t
C:\Users\triet\AppData\Local\Temp\ccoOOlUu.s:106    .text.Error_Handler:00000000 Error_Handler
C:\Users\triet\AppData\Local\Temp\ccoOOlUu.s:138    .text.MX_I2C1_Init:00000000 $t
C:\Users\triet\AppData\Local\Temp\ccoOOlUu.s:143    .text.MX_I2C1_Init:00000000 MX_I2C1_Init
C:\Users\triet\AppData\Local\Temp\ccoOOlUu.s:201    .text.MX_I2C1_Init:0000002c $d
C:\Users\triet\AppData\Local\Temp\ccoOOlUu.s:208    .text.MX_USART2_UART_Init:00000000 $t
C:\Users\triet\AppData\Local\Temp\ccoOOlUu.s:213    .text.MX_USART2_UART_Init:00000000 MX_USART2_UART_Init
C:\Users\triet\AppData\Local\Temp\ccoOOlUu.s:268    .text.MX_USART2_UART_Init:0000002c $d
C:\Users\triet\AppData\Local\Temp\ccoOOlUu.s:274    .text.SystemClock_Config:00000000 $t
C:\Users\triet\AppData\Local\Temp\ccoOOlUu.s:280    .text.SystemClock_Config:00000000 SystemClock_Config
C:\Users\triet\AppData\Local\Temp\ccoOOlUu.s:440    .text.SystemClock_Config:000000ac $d
C:\Users\triet\AppData\Local\Temp\ccoOOlUu.s:452    .rodata.main.str1.4:00000000 $d
C:\Users\triet\AppData\Local\Temp\ccoOOlUu.s:459    .text.main:00000000 $t
C:\Users\triet\AppData\Local\Temp\ccoOOlUu.s:465    .text.main:00000000 main
C:\Users\triet\AppData\Local\Temp\ccoOOlUu.s:585    .text.main:000000a0 $d
C:\Users\triet\AppData\Local\Temp\ccoOOlUu.s:591    .text.main:000000a8 $t
C:\Users\triet\AppData\Local\Temp\ccoOOlUu.s:1013   .text.main:000003d8 $d
C:\Users\triet\AppData\Local\Temp\ccoOOlUu.s:1094   .bss.set_gyro_angles:00000000 set_gyro_angles
C:\Users\triet\AppData\Local\Temp\ccoOOlUu.s:1073   .bss.Yaw_Data:00000000 Yaw_Data
C:\Users\triet\AppData\Local\Temp\ccoOOlUu.s:1060   .bss.Pitch_Data:00000000 Pitch_Data
C:\Users\triet\AppData\Local\Temp\ccoOOlUu.s:1067   .bss.Roll_Data:00000000 Roll_Data
C:\Users\triet\AppData\Local\Temp\ccoOOlUu.s:1053   .bss.MPU6050:00000000 MPU6050
C:\Users\triet\AppData\Local\Temp\ccoOOlUu.s:1087   .bss.huart2:00000000 huart2
C:\Users\triet\AppData\Local\Temp\ccoOOlUu.s:1080   .bss.hi2c1:00000000 hi2c1
C:\Users\triet\AppData\Local\Temp\ccoOOlUu.s:1049   .bss.MPU6050:00000000 $d
C:\Users\triet\AppData\Local\Temp\ccoOOlUu.s:1056   .bss.Pitch_Data:00000000 $d
C:\Users\triet\AppData\Local\Temp\ccoOOlUu.s:1063   .bss.Roll_Data:00000000 $d
C:\Users\triet\AppData\Local\Temp\ccoOOlUu.s:1070   .bss.Yaw_Data:00000000 $d
C:\Users\triet\AppData\Local\Temp\ccoOOlUu.s:1076   .bss.hi2c1:00000000 $d
C:\Users\triet\AppData\Local\Temp\ccoOOlUu.s:1083   .bss.huart2:00000000 $d
C:\Users\triet\AppData\Local\Temp\ccoOOlUu.s:1090   .bss.set_gyro_angles:00000000 $d

UNDEFINED SYMBOLS
HAL_I2C_Init
HAL_UART_Init
memset
HAL_RCC_OscConfig
HAL_PWREx_EnableOverDrive
HAL_RCC_ClockConfig
__aeabi_dadd
__aeabi_ddiv
__aeabi_dsub
__aeabi_dmul
__aeabi_f2d
__aeabi_d2f
HAL_Init
MPU6050_Init
MPU6050_Read
HAL_Delay
sprintf
HAL_UART_Transmit
sin
ARM GAS  C:\Users\triet\AppData\Local\Temp\ccoOOlUu.s 			page 34


pow
sqrt
asin
