ARM GAS  C:\Users\pc\AppData\Local\Temp\ccBT5WIq.s 			page 1


   1              		.cpu cortex-m4
   2              		.arch armv7e-m
   3              		.fpu fpv4-sp-d16
   4              		.eabi_attribute 27, 1
   5              		.eabi_attribute 28, 1
   6              		.eabi_attribute 20, 1
   7              		.eabi_attribute 21, 1
   8              		.eabi_attribute 23, 3
   9              		.eabi_attribute 24, 1
  10              		.eabi_attribute 25, 1
  11              		.eabi_attribute 26, 1
  12              		.eabi_attribute 30, 1
  13              		.eabi_attribute 34, 1
  14              		.eabi_attribute 18, 4
  15              		.file	"mpu6050.c"
  16              		.text
  17              	.Ltext0:
  18              		.cfi_sections	.debug_frame
  19              		.file 1 "Core/Src/mpu6050.c"
  20              		.section	.text.MPU6050_Init,"ax",%progbits
  21              		.align	1
  22              		.global	MPU6050_Init
  23              		.syntax unified
  24              		.thumb
  25              		.thumb_func
  27              	MPU6050_Init:
  28              	.LFB130:
   1:Core/Src/mpu6050.c **** #include <mpu6050.h>
   2:Core/Src/mpu6050.c **** 
   3:Core/Src/mpu6050.c **** extern I2C_HandleTypeDef hi2c1;
   4:Core/Src/mpu6050.c **** 
   5:Core/Src/mpu6050.c **** 
   6:Core/Src/mpu6050.c **** void MPU6050_Init()
   7:Core/Src/mpu6050.c **** {
  29              		.loc 1 7 1 view -0
  30              		.cfi_startproc
  31              		@ args = 0, pretend = 0, frame = 8
  32              		@ frame_needed = 0, uses_anonymous_args = 0
  33 0000 2DE9F041 		push	{r4, r5, r6, r7, r8, lr}
  34              	.LCFI0:
  35              		.cfi_def_cfa_offset 24
  36              		.cfi_offset 4, -24
  37              		.cfi_offset 5, -20
  38              		.cfi_offset 6, -16
  39              		.cfi_offset 7, -12
  40              		.cfi_offset 8, -8
  41              		.cfi_offset 14, -4
  42 0004 86B0     		sub	sp, sp, #24
  43              	.LCFI1:
  44              		.cfi_def_cfa_offset 48
   8:Core/Src/mpu6050.c ****     uint8_t check,Data; 
  45              		.loc 1 8 5 view .LVU1
   9:Core/Src/mpu6050.c **** 
  10:Core/Src/mpu6050.c ****     HAL_I2C_Mem_Read(&hi2c1, (MPU6050_Address<<1), WHO_AM_I, 1, &check, 1,1000);
  46              		.loc 1 10 5 view .LVU2
  47 0006 4FF47A73 		mov	r3, #1000
  48 000a 0293     		str	r3, [sp, #8]
ARM GAS  C:\Users\pc\AppData\Local\Temp\ccBT5WIq.s 			page 2


  49 000c 0123     		movs	r3, #1
  50 000e 0193     		str	r3, [sp, #4]
  51 0010 0DF11702 		add	r2, sp, #23
  52 0014 0092     		str	r2, [sp]
  53 0016 7522     		movs	r2, #117
  54 0018 D021     		movs	r1, #208
  55 001a 2048     		ldr	r0, .L5
  56 001c FFF7FEFF 		bl	HAL_I2C_Mem_Read
  57              	.LVL0:
  11:Core/Src/mpu6050.c ****     if(check == MPU6050_Address)
  58              		.loc 1 11 5 view .LVU3
  59              		.loc 1 11 14 is_stmt 0 view .LVU4
  60 0020 9DF81730 		ldrb	r3, [sp, #23]	@ zero_extendqisi2
  61              		.loc 1 11 7 view .LVU5
  62 0024 682B     		cmp	r3, #104
  63 0026 02D0     		beq	.L4
  64              	.L1:
  12:Core/Src/mpu6050.c ****     {
  13:Core/Src/mpu6050.c ****         Data = 0;
  14:Core/Src/mpu6050.c ****         HAL_I2C_Mem_Write(&hi2c1, (MPU6050_Address<<1), PWR_MGMT_1, 1, &Data, 1, 1000);
  15:Core/Src/mpu6050.c **** 
  16:Core/Src/mpu6050.c ****         Data = 0x07;
  17:Core/Src/mpu6050.c ****         HAL_I2C_Mem_Write(&hi2c1, (MPU6050_Address<<1), SMPRT_DIV, 1, &Data, 1, 1000);
  18:Core/Src/mpu6050.c **** 
  19:Core/Src/mpu6050.c ****         Data = 0x0;
  20:Core/Src/mpu6050.c ****         HAL_I2C_Mem_Write(&hi2c1, (MPU6050_Address<<1), ACCEL_CONFIG, 1,&Data, 1, 1000);
  21:Core/Src/mpu6050.c **** 
  22:Core/Src/mpu6050.c ****         Data = 0x0;
  23:Core/Src/mpu6050.c ****         HAL_I2C_Mem_Write(&hi2c1, (MPU6050_Address<<1), GYRO_CONFIG, 1,&Data, 1, 1000);
  24:Core/Src/mpu6050.c ****     }
  25:Core/Src/mpu6050.c **** }
  65              		.loc 1 25 1 view .LVU6
  66 0028 06B0     		add	sp, sp, #24
  67              	.LCFI2:
  68              		.cfi_remember_state
  69              		.cfi_def_cfa_offset 24
  70              		@ sp needed
  71 002a BDE8F081 		pop	{r4, r5, r6, r7, r8, pc}
  72              	.L4:
  73              	.LCFI3:
  74              		.cfi_restore_state
  13:Core/Src/mpu6050.c ****         HAL_I2C_Mem_Write(&hi2c1, (MPU6050_Address<<1), PWR_MGMT_1, 1, &Data, 1, 1000);
  75              		.loc 1 13 9 is_stmt 1 view .LVU7
  13:Core/Src/mpu6050.c ****         HAL_I2C_Mem_Write(&hi2c1, (MPU6050_Address<<1), PWR_MGMT_1, 1, &Data, 1, 1000);
  76              		.loc 1 13 14 is_stmt 0 view .LVU8
  77 002e 4FF00008 		mov	r8, #0
  78 0032 8DF81680 		strb	r8, [sp, #22]
  14:Core/Src/mpu6050.c **** 
  79              		.loc 1 14 9 is_stmt 1 view .LVU9
  80 0036 194D     		ldr	r5, .L5
  81 0038 4FF47A77 		mov	r7, #1000
  82 003c 0297     		str	r7, [sp, #8]
  83 003e 0124     		movs	r4, #1
  84 0040 0194     		str	r4, [sp, #4]
  85 0042 0DF11606 		add	r6, sp, #22
  86 0046 0096     		str	r6, [sp]
  87 0048 2346     		mov	r3, r4
ARM GAS  C:\Users\pc\AppData\Local\Temp\ccBT5WIq.s 			page 3


  88 004a 6B22     		movs	r2, #107
  89 004c D021     		movs	r1, #208
  90 004e 2846     		mov	r0, r5
  91 0050 FFF7FEFF 		bl	HAL_I2C_Mem_Write
  92              	.LVL1:
  16:Core/Src/mpu6050.c ****         HAL_I2C_Mem_Write(&hi2c1, (MPU6050_Address<<1), SMPRT_DIV, 1, &Data, 1, 1000);
  93              		.loc 1 16 9 view .LVU10
  16:Core/Src/mpu6050.c ****         HAL_I2C_Mem_Write(&hi2c1, (MPU6050_Address<<1), SMPRT_DIV, 1, &Data, 1, 1000);
  94              		.loc 1 16 14 is_stmt 0 view .LVU11
  95 0054 0723     		movs	r3, #7
  96 0056 8DF81630 		strb	r3, [sp, #22]
  17:Core/Src/mpu6050.c **** 
  97              		.loc 1 17 9 is_stmt 1 view .LVU12
  98 005a 0297     		str	r7, [sp, #8]
  99 005c 0194     		str	r4, [sp, #4]
 100 005e 0096     		str	r6, [sp]
 101 0060 2346     		mov	r3, r4
 102 0062 1922     		movs	r2, #25
 103 0064 D021     		movs	r1, #208
 104 0066 2846     		mov	r0, r5
 105 0068 FFF7FEFF 		bl	HAL_I2C_Mem_Write
 106              	.LVL2:
  19:Core/Src/mpu6050.c ****         HAL_I2C_Mem_Write(&hi2c1, (MPU6050_Address<<1), ACCEL_CONFIG, 1,&Data, 1, 1000);
 107              		.loc 1 19 9 view .LVU13
  19:Core/Src/mpu6050.c ****         HAL_I2C_Mem_Write(&hi2c1, (MPU6050_Address<<1), ACCEL_CONFIG, 1,&Data, 1, 1000);
 108              		.loc 1 19 14 is_stmt 0 view .LVU14
 109 006c 8DF81680 		strb	r8, [sp, #22]
  20:Core/Src/mpu6050.c **** 
 110              		.loc 1 20 9 is_stmt 1 view .LVU15
 111 0070 0297     		str	r7, [sp, #8]
 112 0072 0194     		str	r4, [sp, #4]
 113 0074 0096     		str	r6, [sp]
 114 0076 2346     		mov	r3, r4
 115 0078 1C22     		movs	r2, #28
 116 007a D021     		movs	r1, #208
 117 007c 2846     		mov	r0, r5
 118 007e FFF7FEFF 		bl	HAL_I2C_Mem_Write
 119              	.LVL3:
  22:Core/Src/mpu6050.c ****         HAL_I2C_Mem_Write(&hi2c1, (MPU6050_Address<<1), GYRO_CONFIG, 1,&Data, 1, 1000);
 120              		.loc 1 22 9 view .LVU16
  22:Core/Src/mpu6050.c ****         HAL_I2C_Mem_Write(&hi2c1, (MPU6050_Address<<1), GYRO_CONFIG, 1,&Data, 1, 1000);
 121              		.loc 1 22 14 is_stmt 0 view .LVU17
 122 0082 8DF81680 		strb	r8, [sp, #22]
  23:Core/Src/mpu6050.c ****     }
 123              		.loc 1 23 9 is_stmt 1 view .LVU18
 124 0086 0297     		str	r7, [sp, #8]
 125 0088 0194     		str	r4, [sp, #4]
 126 008a 0096     		str	r6, [sp]
 127 008c 2346     		mov	r3, r4
 128 008e 1B22     		movs	r2, #27
 129 0090 D021     		movs	r1, #208
 130 0092 2846     		mov	r0, r5
 131 0094 FFF7FEFF 		bl	HAL_I2C_Mem_Write
 132              	.LVL4:
 133              		.loc 1 25 1 is_stmt 0 view .LVU19
 134 0098 C6E7     		b	.L1
 135              	.L6:
ARM GAS  C:\Users\pc\AppData\Local\Temp\ccBT5WIq.s 			page 4


 136 009a 00BF     		.align	2
 137              	.L5:
 138 009c 00000000 		.word	hi2c1
 139              		.cfi_endproc
 140              	.LFE130:
 142              		.global	__aeabi_i2d
 143              		.global	__aeabi_ddiv
 144              		.global	__aeabi_d2f
 145              		.global	__aeabi_dmul
 146              		.global	__aeabi_f2d
 147              		.global	__aeabi_dadd
 148              		.section	.text.MPU6050_Read,"ax",%progbits
 149              		.align	1
 150              		.global	MPU6050_Read
 151              		.syntax unified
 152              		.thumb
 153              		.thumb_func
 155              	MPU6050_Read:
 156              	.LVL5:
 157              	.LFB131:
  26:Core/Src/mpu6050.c **** 
  27:Core/Src/mpu6050.c **** 
  28:Core/Src/mpu6050.c **** void MPU6050_Read(mpu6050_t *Data)
  29:Core/Src/mpu6050.c **** {
 158              		.loc 1 29 1 is_stmt 1 view -0
 159              		.cfi_startproc
 160              		@ args = 0, pretend = 0, frame = 16
 161              		@ frame_needed = 0, uses_anonymous_args = 0
 162              		.loc 1 29 1 is_stmt 0 view .LVU21
 163 0000 2DE9F047 		push	{r4, r5, r6, r7, r8, r9, r10, lr}
 164              	.LCFI4:
 165              		.cfi_def_cfa_offset 32
 166              		.cfi_offset 4, -32
 167              		.cfi_offset 5, -28
 168              		.cfi_offset 6, -24
 169              		.cfi_offset 7, -20
 170              		.cfi_offset 8, -16
 171              		.cfi_offset 9, -12
 172              		.cfi_offset 10, -8
 173              		.cfi_offset 14, -4
 174 0004 2DED048B 		vpush.64	{d8, d9}
 175              	.LCFI5:
 176              		.cfi_def_cfa_offset 48
 177              		.cfi_offset 80, -48
 178              		.cfi_offset 81, -44
 179              		.cfi_offset 82, -40
 180              		.cfi_offset 83, -36
 181 0008 88B0     		sub	sp, sp, #32
 182              	.LCFI6:
 183              		.cfi_def_cfa_offset 80
 184 000a 0446     		mov	r4, r0
  30:Core/Src/mpu6050.c ****     uint8_t Accel_Data[6];
 185              		.loc 1 30 5 is_stmt 1 view .LVU22
  31:Core/Src/mpu6050.c ****     HAL_I2C_Mem_Read(&hi2c1, (MPU6050_Address<<1), ACCEL_XOUT, 1, &Accel_Data, 6, 1000);
 186              		.loc 1 31 5 view .LVU23
 187 000c 8A4D     		ldr	r5, .L9+24
 188 000e 4FF47A77 		mov	r7, #1000
ARM GAS  C:\Users\pc\AppData\Local\Temp\ccBT5WIq.s 			page 5


 189 0012 0297     		str	r7, [sp, #8]
 190 0014 0626     		movs	r6, #6
 191 0016 0196     		str	r6, [sp, #4]
 192 0018 06AB     		add	r3, sp, #24
 193 001a 0093     		str	r3, [sp]
 194 001c 0123     		movs	r3, #1
 195 001e 3B22     		movs	r2, #59
 196 0020 D021     		movs	r1, #208
 197 0022 2846     		mov	r0, r5
 198              	.LVL6:
 199              		.loc 1 31 5 is_stmt 0 view .LVU24
 200 0024 FFF7FEFF 		bl	HAL_I2C_Mem_Read
 201              	.LVL7:
  32:Core/Src/mpu6050.c ****     Data->Ax_RAW =(int16_t) (Accel_Data[0] <<8 | Accel_Data[1]);
 202              		.loc 1 32 5 is_stmt 1 view .LVU25
 203              		.loc 1 32 40 is_stmt 0 view .LVU26
 204 0028 9DF81820 		ldrb	r2, [sp, #24]	@ zero_extendqisi2
 205              		.loc 1 32 60 view .LVU27
 206 002c 9DF81930 		ldrb	r3, [sp, #25]	@ zero_extendqisi2
 207              		.loc 1 32 19 view .LVU28
 208 0030 43EA0223 		orr	r3, r3, r2, lsl #8
 209              		.loc 1 32 18 view .LVU29
 210 0034 6385     		strh	r3, [r4, #42]	@ movhi
  33:Core/Src/mpu6050.c ****     Data->Ay_RAW =(int16_t) (Accel_Data[2] <<8 | Accel_Data[3]);
 211              		.loc 1 33 5 is_stmt 1 view .LVU30
 212              		.loc 1 33 40 is_stmt 0 view .LVU31
 213 0036 9DF81A20 		ldrb	r2, [sp, #26]	@ zero_extendqisi2
 214              		.loc 1 33 60 view .LVU32
 215 003a 9DF81B30 		ldrb	r3, [sp, #27]	@ zero_extendqisi2
 216              		.loc 1 33 19 view .LVU33
 217 003e 43EA0223 		orr	r3, r3, r2, lsl #8
 218              		.loc 1 33 18 view .LVU34
 219 0042 A385     		strh	r3, [r4, #44]	@ movhi
  34:Core/Src/mpu6050.c ****     Data->Az_RAW =(int16_t) (Accel_Data[4] <<8 | Accel_Data[5]);
 220              		.loc 1 34 5 is_stmt 1 view .LVU35
 221              		.loc 1 34 40 is_stmt 0 view .LVU36
 222 0044 9DF81C20 		ldrb	r2, [sp, #28]	@ zero_extendqisi2
 223              		.loc 1 34 60 view .LVU37
 224 0048 9DF81D30 		ldrb	r3, [sp, #29]	@ zero_extendqisi2
 225              		.loc 1 34 19 view .LVU38
 226 004c 43EA0223 		orr	r3, r3, r2, lsl #8
 227              		.loc 1 34 18 view .LVU39
 228 0050 E385     		strh	r3, [r4, #46]	@ movhi
  35:Core/Src/mpu6050.c ****  
  36:Core/Src/mpu6050.c ****      uint8_t Gyro_Data[6];
 229              		.loc 1 36 6 is_stmt 1 view .LVU40
  37:Core/Src/mpu6050.c ****     HAL_I2C_Mem_Read(&hi2c1, (MPU6050_Address<<1), ACCEL_XOUT, 1, &Gyro_Data, 6, 1000);
 230              		.loc 1 37 5 view .LVU41
 231 0052 0297     		str	r7, [sp, #8]
 232 0054 0196     		str	r6, [sp, #4]
 233 0056 04AB     		add	r3, sp, #16
 234 0058 0093     		str	r3, [sp]
 235 005a 0123     		movs	r3, #1
 236 005c 3B22     		movs	r2, #59
 237 005e D021     		movs	r1, #208
 238 0060 2846     		mov	r0, r5
 239 0062 FFF7FEFF 		bl	HAL_I2C_Mem_Read
ARM GAS  C:\Users\pc\AppData\Local\Temp\ccBT5WIq.s 			page 6


 240              	.LVL8:
  38:Core/Src/mpu6050.c ****     Data->Gx_RAW =(int16_t) (Gyro_Data[0] << 8 | Gyro_Data[1]);
 241              		.loc 1 38 5 view .LVU42
 242              		.loc 1 38 39 is_stmt 0 view .LVU43
 243 0066 9DF81030 		ldrb	r3, [sp, #16]	@ zero_extendqisi2
 244              		.loc 1 38 59 view .LVU44
 245 006a 9DF81100 		ldrb	r0, [sp, #17]	@ zero_extendqisi2
 246              		.loc 1 38 19 view .LVU45
 247 006e 40EA0320 		orr	r0, r0, r3, lsl #8
 248 0072 00B2     		sxth	r0, r0
 249              		.loc 1 38 18 view .LVU46
 250 0074 A084     		strh	r0, [r4, #36]	@ movhi
  39:Core/Src/mpu6050.c ****     Data->Gy_RAW =(int16_t) (Gyro_Data[2] << 8 | Gyro_Data[3]);
 251              		.loc 1 39 5 is_stmt 1 view .LVU47
 252              		.loc 1 39 39 is_stmt 0 view .LVU48
 253 0076 9DF81230 		ldrb	r3, [sp, #18]	@ zero_extendqisi2
 254              		.loc 1 39 59 view .LVU49
 255 007a 9DF81360 		ldrb	r6, [sp, #19]	@ zero_extendqisi2
 256              		.loc 1 39 19 view .LVU50
 257 007e 46EA0326 		orr	r6, r6, r3, lsl #8
 258 0082 36B2     		sxth	r6, r6
 259              		.loc 1 39 18 view .LVU51
 260 0084 E684     		strh	r6, [r4, #38]	@ movhi
  40:Core/Src/mpu6050.c ****     Data->Gz_RAW =(int16_t) (Gyro_Data[4] << 8 | Gyro_Data[5]);
 261              		.loc 1 40 5 is_stmt 1 view .LVU52
 262              		.loc 1 40 39 is_stmt 0 view .LVU53
 263 0086 9DF81430 		ldrb	r3, [sp, #20]	@ zero_extendqisi2
 264              		.loc 1 40 59 view .LVU54
 265 008a 9DF81550 		ldrb	r5, [sp, #21]	@ zero_extendqisi2
 266              		.loc 1 40 19 view .LVU55
 267 008e 45EA0325 		orr	r5, r5, r3, lsl #8
 268 0092 2DB2     		sxth	r5, r5
 269              		.loc 1 40 18 view .LVU56
 270 0094 2585     		strh	r5, [r4, #40]	@ movhi
  41:Core/Src/mpu6050.c **** 
  42:Core/Src/mpu6050.c ****     Data->Gx = Data->Gx_RAW/65.5;
 271              		.loc 1 42 5 is_stmt 1 view .LVU57
 272              		.loc 1 42 28 is_stmt 0 view .LVU58
 273 0096 FFF7FEFF 		bl	__aeabi_i2d
 274              	.LVL9:
 275 009a 61A3     		adr	r3, .L9
 276 009c D3E90023 		ldrd	r2, [r3]
 277 00a0 FFF7FEFF 		bl	__aeabi_ddiv
 278              	.LVL10:
 279 00a4 FFF7FEFF 		bl	__aeabi_d2f
 280              	.LVL11:
 281              		.loc 1 42 14 view .LVU59
 282 00a8 2060     		str	r0, [r4]	@ float
  43:Core/Src/mpu6050.c ****     Data->Gy = Data->Gy_RAW/65.5;
 283              		.loc 1 43 5 is_stmt 1 view .LVU60
 284              		.loc 1 43 28 is_stmt 0 view .LVU61
 285 00aa 3046     		mov	r0, r6
 286 00ac FFF7FEFF 		bl	__aeabi_i2d
 287              	.LVL12:
 288 00b0 5BA3     		adr	r3, .L9
 289 00b2 D3E90023 		ldrd	r2, [r3]
 290 00b6 FFF7FEFF 		bl	__aeabi_ddiv
ARM GAS  C:\Users\pc\AppData\Local\Temp\ccBT5WIq.s 			page 7


 291              	.LVL13:
 292 00ba FFF7FEFF 		bl	__aeabi_d2f
 293              	.LVL14:
 294              		.loc 1 43 14 view .LVU62
 295 00be 6060     		str	r0, [r4, #4]	@ float
  44:Core/Src/mpu6050.c ****     Data->Gz = Data->Gz_RAW/65.5;
 296              		.loc 1 44 5 is_stmt 1 view .LVU63
 297              		.loc 1 44 28 is_stmt 0 view .LVU64
 298 00c0 2846     		mov	r0, r5
 299 00c2 FFF7FEFF 		bl	__aeabi_i2d
 300              	.LVL15:
 301 00c6 56A3     		adr	r3, .L9
 302 00c8 D3E90023 		ldrd	r2, [r3]
 303 00cc FFF7FEFF 		bl	__aeabi_ddiv
 304              	.LVL16:
 305 00d0 FFF7FEFF 		bl	__aeabi_d2f
 306              	.LVL17:
 307              		.loc 1 44 14 view .LVU65
 308 00d4 A060     		str	r0, [r4, #8]	@ float
  45:Core/Src/mpu6050.c **** 
  46:Core/Src/mpu6050.c ****     Data->Ax = Data->Ax_RAW/4096.0;
 309              		.loc 1 46 5 is_stmt 1 view .LVU66
 310              		.loc 1 46 28 is_stmt 0 view .LVU67
 311 00d6 B4F92A00 		ldrsh	r0, [r4, #42]
 312 00da FFF7FEFF 		bl	__aeabi_i2d
 313              	.LVL18:
 314 00de 0022     		movs	r2, #0
 315 00e0 564B     		ldr	r3, .L9+28
 316 00e2 FFF7FEFF 		bl	__aeabi_dmul
 317              	.LVL19:
 318 00e6 FFF7FEFF 		bl	__aeabi_d2f
 319              	.LVL20:
 320 00ea 0646     		mov	r6, r0	@ float
 321              		.loc 1 46 14 view .LVU68
 322 00ec A061     		str	r0, [r4, #24]	@ float
  47:Core/Src/mpu6050.c ****     Data->Ay = Data->Ay_RAW/4096.0;
 323              		.loc 1 47 5 is_stmt 1 view .LVU69
 324              		.loc 1 47 28 is_stmt 0 view .LVU70
 325 00ee B4F92C00 		ldrsh	r0, [r4, #44]
 326 00f2 FFF7FEFF 		bl	__aeabi_i2d
 327              	.LVL21:
 328 00f6 0022     		movs	r2, #0
 329 00f8 504B     		ldr	r3, .L9+28
 330 00fa FFF7FEFF 		bl	__aeabi_dmul
 331              	.LVL22:
 332 00fe FFF7FEFF 		bl	__aeabi_d2f
 333              	.LVL23:
 334 0102 0546     		mov	r5, r0	@ float
 335              		.loc 1 47 14 view .LVU71
 336 0104 E061     		str	r0, [r4, #28]	@ float
  48:Core/Src/mpu6050.c ****     Data->Az = Data->Az_RAW/4096.0;
 337              		.loc 1 48 5 is_stmt 1 view .LVU72
 338              		.loc 1 48 28 is_stmt 0 view .LVU73
 339 0106 B4F92E00 		ldrsh	r0, [r4, #46]
 340 010a FFF7FEFF 		bl	__aeabi_i2d
 341              	.LVL24:
 342 010e 0022     		movs	r2, #0
ARM GAS  C:\Users\pc\AppData\Local\Temp\ccBT5WIq.s 			page 8


 343 0110 4A4B     		ldr	r3, .L9+28
 344 0112 FFF7FEFF 		bl	__aeabi_dmul
 345              	.LVL25:
 346 0116 FFF7FEFF 		bl	__aeabi_d2f
 347              	.LVL26:
 348 011a 8246     		mov	r10, r0	@ float
 349              		.loc 1 48 14 view .LVU74
 350 011c 2062     		str	r0, [r4, #32]	@ float
  49:Core/Src/mpu6050.c **** 
  50:Core/Src/mpu6050.c ****     Data->Roll = atan(Data->Ax/(sqrt(pow(Data->Ay,2)+pow(Data->Az,2))))*RAD2DEG;
 351              		.loc 1 50 5 is_stmt 1 view .LVU75
 352              		.loc 1 50 27 is_stmt 0 view .LVU76
 353 011e 3046     		mov	r0, r6	@ float
 354 0120 FFF7FEFF 		bl	__aeabi_f2d
 355              	.LVL27:
 356 0124 8046     		mov	r8, r0
 357 0126 8946     		mov	r9, r1
 358              		.loc 1 50 38 view .LVU77
 359 0128 9FED3F9B 		vldr.64	d9, .L9+8
 360 012c 2846     		mov	r0, r5	@ float
 361 012e FFF7FEFF 		bl	__aeabi_f2d
 362              	.LVL28:
 363 0132 B0EE491A 		vmov.f32	s2, s18
 364 0136 F0EE691A 		vmov.f32	s3, s19
 365 013a 41EC100B 		vmov	d0, r0, r1
 366 013e FFF7FEFF 		bl	pow
 367              	.LVL29:
 368 0142 57EC106B 		vmov	r6, r7, d0
 369              		.loc 1 50 54 view .LVU78
 370 0146 5046     		mov	r0, r10	@ float
 371 0148 FFF7FEFF 		bl	__aeabi_f2d
 372              	.LVL30:
 373 014c 41EC180B 		vmov	d8, r0, r1
 374 0150 B0EE491A 		vmov.f32	s2, s18
 375 0154 F0EE691A 		vmov.f32	s3, s19
 376 0158 B0EE480A 		vmov.f32	s0, s16
 377 015c F0EE680A 		vmov.f32	s1, s17
 378 0160 FFF7FEFF 		bl	pow
 379              	.LVL31:
 380 0164 53EC102B 		vmov	r2, r3, d0
 381              		.loc 1 50 33 view .LVU79
 382 0168 3046     		mov	r0, r6
 383 016a 3946     		mov	r1, r7
 384 016c FFF7FEFF 		bl	__aeabi_dadd
 385              	.LVL32:
 386 0170 41EC100B 		vmov	d0, r0, r1
 387 0174 FFF7FEFF 		bl	sqrt
 388              	.LVL33:
 389 0178 53EC102B 		vmov	r2, r3, d0
 390              		.loc 1 50 18 view .LVU80
 391 017c 4046     		mov	r0, r8
 392 017e 4946     		mov	r1, r9
 393 0180 FFF7FEFF 		bl	__aeabi_ddiv
 394              	.LVL34:
 395 0184 41EC100B 		vmov	d0, r0, r1
 396 0188 FFF7FEFF 		bl	atan
 397              	.LVL35:
ARM GAS  C:\Users\pc\AppData\Local\Temp\ccBT5WIq.s 			page 9


 398 018c 51EC100B 		vmov	r0, r1, d0
 399              		.loc 1 50 72 view .LVU81
 400 0190 27A3     		adr	r3, .L9+16
 401 0192 D3E90023 		ldrd	r2, [r3]
 402 0196 FFF7FEFF 		bl	__aeabi_dmul
 403              	.LVL36:
 404 019a FFF7FEFF 		bl	__aeabi_d2f
 405              	.LVL37:
 406              		.loc 1 50 16 view .LVU82
 407 019e 2063     		str	r0, [r4, #48]	@ float
  51:Core/Src/mpu6050.c ****     Data->Pitch = atan((-1*Data->Ay)/(sqrt( pow(Data->Ax,2) + pow(Data->Az,2) )))*RAD2DEG;
 408              		.loc 1 51 5 is_stmt 1 view .LVU83
 409              		.loc 1 51 27 is_stmt 0 view .LVU84
 410 01a0 85F00040 		eor	r0, r5, #-2147483648
 411 01a4 FFF7FEFF 		bl	__aeabi_f2d
 412              	.LVL38:
 413 01a8 0646     		mov	r6, r0
 414 01aa 0F46     		mov	r7, r1
 415              		.loc 1 51 45 view .LVU85
 416 01ac B0EE491A 		vmov.f32	s2, s18
 417 01b0 F0EE691A 		vmov.f32	s3, s19
 418 01b4 49EC108B 		vmov	d0, r8, r9
 419 01b8 FFF7FEFF 		bl	pow
 420              	.LVL39:
 421 01bc 59EC108B 		vmov	r8, r9, d0
 422              		.loc 1 51 63 view .LVU86
 423 01c0 B0EE491A 		vmov.f32	s2, s18
 424 01c4 F0EE691A 		vmov.f32	s3, s19
 425 01c8 B0EE480A 		vmov.f32	s0, s16
 426 01cc F0EE680A 		vmov.f32	s1, s17
 427 01d0 FFF7FEFF 		bl	pow
 428              	.LVL40:
 429 01d4 53EC102B 		vmov	r2, r3, d0
 430              		.loc 1 51 39 view .LVU87
 431 01d8 4046     		mov	r0, r8
 432 01da 4946     		mov	r1, r9
 433 01dc FFF7FEFF 		bl	__aeabi_dadd
 434              	.LVL41:
 435 01e0 41EC100B 		vmov	d0, r0, r1
 436 01e4 FFF7FEFF 		bl	sqrt
 437              	.LVL42:
 438 01e8 53EC102B 		vmov	r2, r3, d0
 439              		.loc 1 51 19 view .LVU88
 440 01ec 3046     		mov	r0, r6
 441 01ee 3946     		mov	r1, r7
 442 01f0 FFF7FEFF 		bl	__aeabi_ddiv
 443              	.LVL43:
 444 01f4 41EC100B 		vmov	d0, r0, r1
 445 01f8 FFF7FEFF 		bl	atan
 446              	.LVL44:
 447 01fc 51EC100B 		vmov	r0, r1, d0
 448              		.loc 1 51 82 view .LVU89
 449 0200 0BA3     		adr	r3, .L9+16
 450 0202 D3E90023 		ldrd	r2, [r3]
 451 0206 FFF7FEFF 		bl	__aeabi_dmul
 452              	.LVL45:
 453 020a FFF7FEFF 		bl	__aeabi_d2f
ARM GAS  C:\Users\pc\AppData\Local\Temp\ccBT5WIq.s 			page 10


 454              	.LVL46:
 455              		.loc 1 51 17 view .LVU90
 456 020e 6063     		str	r0, [r4, #52]	@ float
  52:Core/Src/mpu6050.c **** }...
 457              		.loc 1 52 1 view .LVU91
 458 0210 08B0     		add	sp, sp, #32
 459              	.LCFI7:
 460              		.cfi_def_cfa_offset 48
 461              		@ sp needed
 462 0212 BDEC048B 		vldm	sp!, {d8-d9}
 463              	.LCFI8:
 464              		.cfi_restore 82
 465              		.cfi_restore 83
 466              		.cfi_restore 80
 467              		.cfi_restore 81
 468              		.cfi_def_cfa_offset 32
 469 0216 BDE8F087 		pop	{r4, r5, r6, r7, r8, r9, r10, pc}
 470              	.LVL47:
 471              	.L10:
 472              		.loc 1 52 1 view .LVU92
 473 021a 00BFAFF3 		.align	3
 473      0080
 474              	.L9:
 475 0220 00000000 		.word	0
 476 0224 00605040 		.word	1079009280
 477 0228 00000000 		.word	0
 478 022c 00000040 		.word	1073741824
 479 0230 B0CB631A 		.word	442747824
 480 0234 DCA54C40 		.word	1078765020
 481 0238 00000000 		.word	hi2c1
 482 023c 0000303F 		.word	1060110336
 483              		.cfi_endproc
 484              	.LFE131:
 486              		.text
 487              	.Letext0:
 488              		.file 2 "c:\\program files (x86)\\arm gnu toolchain arm-none-eabi\\12.2 mpacbti-rel1\\arm-none-eab
 489              		.file 3 "c:\\program files (x86)\\arm gnu toolchain arm-none-eabi\\12.2 mpacbti-rel1\\arm-none-eab
 490              		.file 4 "Drivers/CMSIS/Device/ST/STM32F4xx/Include/stm32f446xx.h"
 491              		.file 5 "Drivers/STM32F4xx_HAL_Driver/Inc/stm32f4xx_hal_def.h"
 492              		.file 6 "Drivers/STM32F4xx_HAL_Driver/Inc/stm32f4xx_hal_dma.h"
 493              		.file 7 "Drivers/STM32F4xx_HAL_Driver/Inc/stm32f4xx_hal_i2c.h"
 494              		.file 8 "Core/Inc/mpu6050.h"
 495              		.file 9 "c:\\program files (x86)\\arm gnu toolchain arm-none-eabi\\12.2 mpacbti-rel1\\arm-none-eab
ARM GAS  C:\Users\pc\AppData\Local\Temp\ccBT5WIq.s 			page 11


DEFINED SYMBOLS
                            *ABS*:00000000 mpu6050.c
C:\Users\pc\AppData\Local\Temp\ccBT5WIq.s:21     .text.MPU6050_Init:00000000 $t
C:\Users\pc\AppData\Local\Temp\ccBT5WIq.s:27     .text.MPU6050_Init:00000000 MPU6050_Init
C:\Users\pc\AppData\Local\Temp\ccBT5WIq.s:138    .text.MPU6050_Init:0000009c $d
C:\Users\pc\AppData\Local\Temp\ccBT5WIq.s:149    .text.MPU6050_Read:00000000 $t
C:\Users\pc\AppData\Local\Temp\ccBT5WIq.s:155    .text.MPU6050_Read:00000000 MPU6050_Read
C:\Users\pc\AppData\Local\Temp\ccBT5WIq.s:475    .text.MPU6050_Read:00000220 $d

UNDEFINED SYMBOLS
HAL_I2C_Mem_Read
HAL_I2C_Mem_Write
hi2c1
__aeabi_i2d
__aeabi_ddiv
__aeabi_d2f
__aeabi_dmul
__aeabi_f2d
__aeabi_dadd
pow
sqrt
atan
